Archive member included to satisfy reference by file (symbol)

/usr/local/xenon/usr/lib/libxenon.a(argv.o)
                              /usr/local/xenon/lib/gcc/xenon/9.2.0/../../../../xenon/lib/../lib/crt1.o (__check_argv)
/usr/local/xenon/usr/lib/libxenon.a(startup_from_xell.o)
                              (_start)
/usr/local/xenon/usr/lib/libxenon.a(ata.o)
                              main.o (xenon_ata_init)
/usr/local/xenon/usr/lib/libxenon.a(newlib.o)
                              main.o (bdev_enum)
/usr/local/xenon/usr/lib/libxenon.a(xenon_syscalls.o)
                              /usr/local/xenon/usr/lib/libxenon.a(newlib.o) (__syscalls)
/usr/local/xenon/usr/lib/libxenon.a(atomic.o)
                              /usr/local/xenon/usr/lib/libxenon.a(startup_from_xell.o) (atomic_clearset)
/usr/local/xenon/usr/lib/libxenon.a(cache.o)
                              /usr/local/xenon/usr/lib/libxenon.a(ata.o) (memdcbt)
/usr/local/xenon/usr/lib/libxenon.a(except.o)
                              /usr/local/xenon/usr/lib/libxenon.a(startup_from_xell.o) (secondary_lock)
/usr/local/xenon/usr/lib/libxenon.a(c_except.o)
                              /usr/local/xenon/usr/lib/libxenon.a(except.o) (crashdump)
/usr/local/xenon/usr/lib/libxenon.a(vm.o)
                              /usr/local/xenon/usr/lib/libxenon.a(except.o) (vm_segfault_handler)
/usr/local/xenon/usr/lib/libxenon.a(time.o)
                              /usr/local/xenon/usr/lib/libxenon.a(ata.o) (mdelay)
/usr/local/xenon/usr/lib/libxenon.a(usbmain.o)
                              /usr/local/xenon/usr/lib/libxenon.a(xenon_syscalls.o) (usb_shutdown)
/usr/local/xenon/usr/lib/libxenon.a(tinyehci.o)
                              /usr/local/xenon/usr/lib/libxenon.a(usbmain.o) (USBStorage_Init)
/usr/local/xenon/usr/lib/libxenon.a(debug.o)
                              /usr/local/xenon/usr/lib/libxenon.a(xenon_syscalls.o) (data_breakpoint)
/usr/local/xenon/usr/lib/libxenon.a(xenon_smc.o)
                              /usr/local/xenon/usr/lib/libxenon.a(xenon_syscalls.o) (xenon_smc_send_message)
/usr/local/xenon/usr/lib/libxenon.a(xenon_power.o)
                              /usr/local/xenon/usr/lib/libxenon.a(xenon_syscalls.o) (xenon_is_thread_task_running)
/usr/local/xenon/usr/lib/libxenon.a(xenon_secotp.o)
                              main.o (xenon_secotp_read_line)
/usr/local/xenon/usr/lib/libxenon.a(xenon_uart.o)
                              /usr/local/xenon/usr/lib/libxenon.a(newlib.o) (putch)
/usr/local/xenon/usr/lib/libxenon.a(xenon_sfcx.o)
                              main.o (rawflash_readImage)
/usr/local/xenon/usr/lib/libxenon.a(xenon_config.o)
                              /usr/local/xenon/usr/lib/libxenon.a(xenon_power.o) (xenon_config_init)
/usr/local/xenon/usr/lib/libxenon.a(xenos.o)
                              /usr/local/xenon/usr/lib/libxenon.a(c_except.o) (xenos_init)
/usr/local/xenon/usr/lib/libxenon.a(xenos_edid.o)
                              /usr/local/xenon/usr/lib/libxenon.a(xenos.o) (xenos_get_edid)
/usr/local/xenon/usr/lib/libxenon.a(enet.o)
                              /usr/local/xenon/usr/lib/libxenon.a(xenon_syscalls.o) (enet_quiesce)
/usr/local/xenon/usr/lib/libxenon.a(xb360.o)
                              /usr/local/xenon/usr/lib/libxenon.a(xenon_sfcx.o) (xenon_get_PCIBridgeRevisionID)
/usr/local/xenon/usr/lib/libxenon.a(console.o)
                              /usr/local/xenon/usr/lib/libxenon.a(c_except.o) (console_clrscr)
/usr/local/xenon/usr/lib/libxenon.a(lib_malloc.o)
                              /usr/local/xenon/usr/lib/libxenon.a(usbmain.o) (kmem_init)
/usr/local/xenon/usr/lib/libxenon.a(io.o)
                              /usr/local/xenon/usr/lib/libxenon.a(usbmain.o) (read32)
/usr/local/xenon/usr/lib/libxenon.a(ohci.o)
                              /usr/local/xenon/usr/lib/libxenon.a(usbmain.o) (ohci_driver)
/usr/local/xenon/usr/lib/libxenon.a(usbd.o)
                              /usr/local/xenon/usr/lib/libxenon.a(usbmain.o) (usb_poll)
/usr/local/xenon/usr/lib/libxenon.a(usbdevs.o)
                              /usr/local/xenon/usr/lib/libxenon.a(usbd.o) (usb_find_driver)
/usr/local/xenon/usr/lib/libxenon.a(usbhid.o)
                              /usr/local/xenon/usr/lib/libxenon.a(usbdevs.o) (usbhid_driver)
/usr/local/xenon/usr/lib/libxenon.a(usbhub.o)
                              /usr/local/xenon/usr/lib/libxenon.a(usbd.o) (usb_scan)
/usr/local/xenon/usr/lib/libxenon.a(usb_os.o)
                              /usr/local/xenon/usr/lib/libxenon.a(tinyehci.o) (ehci_maligned)
/usr/local/xenon/usr/lib/libxenon.a(xenon_gpio.o)
                              /usr/local/xenon/usr/lib/libxenon.a(enet.o) (xenon_gpio_control)
/usr/local/xenon/usr/lib/libxenon.a(cpusleep.o)
                              /usr/local/xenon/usr/lib/libxenon.a(xenon_power.o) (cpusleep)
/usr/local/xenon/usr/lib/libxenon.a(mem.o)
                              /usr/local/xenon/usr/lib/libxenon.a(enet.o) (mem_malloc)
/usr/local/xenon/usr/lib/libxenon.a(pbuf.o)
                              /usr/local/xenon/usr/lib/libxenon.a(enet.o) (pbuf_header)
/usr/local/xenon/usr/lib/libxenon.a(stats.o)
                              /usr/local/xenon/usr/lib/libxenon.a(enet.o) (lwip_stats)
/usr/local/xenon/usr/lib/libxenon.a(etharp.o)
                              /usr/local/xenon/usr/lib/libxenon.a(enet.o) (etharp_ip_input)
/usr/local/xenon/usr/lib/libxenon.a(dhcp.o)
                              /usr/local/xenon/usr/lib/libxenon.a(etharp.o) (dhcp_arp_reply)
/usr/local/xenon/usr/lib/libxenon.a(hmac_sha1.o)
                              /usr/local/xenon/usr/lib/libxenon.a(xb360.o) (HMAC_SHA1_Init)
/usr/local/xenon/usr/lib/libxenon.a(rc4.o)
                              /usr/local/xenon/usr/lib/libxenon.a(xb360.o) (rc4_init)
/usr/local/xenon/usr/lib/libxenon.a(sha1.o)
                              /usr/local/xenon/usr/lib/libxenon.a(hmac_sha1.o) (SHA1_Init)
/usr/local/xenon/usr/lib/libxenon.a(lib_queue.o)
                              /usr/local/xenon/usr/lib/libxenon.a(ohci.o) (q_enqueue)
/usr/local/xenon/usr/lib/libxenon.a(dummy.o)
                              /usr/local/xenon/usr/lib/libxenon.a(usbdevs.o) (dummy_driver)
/usr/local/xenon/usr/lib/libxenon.a(usbctrl.o)
                              /usr/local/xenon/usr/lib/libxenon.a(usbdevs.o) (usbctrl_driver)
/usr/local/xenon/usr/lib/libxenon.a(usbdebug.o)
                              /usr/local/xenon/usr/lib/libxenon.a(usbhub.o) (usb_dbg_dumpportstatus)
/usr/local/xenon/usr/lib/libxenon.a(dns.o)
                              /usr/local/xenon/usr/lib/libxenon.a(dhcp.o) (dns_setserver)
/usr/local/xenon/usr/lib/libxenon.a(memp.o)
                              /usr/local/xenon/usr/lib/libxenon.a(pbuf.o) (memp_malloc)
/usr/local/xenon/usr/lib/libxenon.a(netif.o)
                              /usr/local/xenon/usr/lib/libxenon.a(dhcp.o) (netif_list)
/usr/local/xenon/usr/lib/libxenon.a(tcp.o)
                              /usr/local/xenon/usr/lib/libxenon.a(netif.o) (tcp_listen_pcbs)
/usr/local/xenon/usr/lib/libxenon.a(ip_addr.o)
                              /usr/local/xenon/usr/lib/libxenon.a(etharp.o) (ip4_addr_isbroadcast)
/usr/local/xenon/usr/lib/libxenon.a(ip.o)
                              /usr/local/xenon/usr/lib/libxenon.a(tcp.o) (ip_route)
/usr/local/xenon/usr/lib/libxenon.a(ip_frag.o)
                              /usr/local/xenon/usr/lib/libxenon.a(ip.o) (ip_reass)
/usr/local/xenon/usr/lib/libxenon.a(tcp_out.o)
                              /usr/local/xenon/usr/lib/libxenon.a(tcp.o) (tcp_enqueue_flags)
/usr/local/xenon/usr/lib/libxenon.a(udp.o)
                              /usr/local/xenon/usr/lib/libxenon.a(ip.o) (udp_input)
/usr/local/xenon/usr/lib/libxenon.a(raw.o)
                              /usr/local/xenon/usr/lib/libxenon.a(ip.o) (raw_input)
/usr/local/xenon/usr/lib/libxenon.a(timers.o)
                              /usr/local/xenon/usr/lib/libxenon.a(tcp.o) (tcp_timer_needed)
/usr/local/xenon/usr/lib/libxenon.a(input.o)
                              /usr/local/xenon/usr/lib/libxenon.a(usbctrl.o) (set_controller_data)
/usr/local/xenon/usr/lib/libxenon.a(tcp_in.o)
                              /usr/local/xenon/usr/lib/libxenon.a(ip.o) (tcp_input)
/usr/local/xenon/usr/lib/libxenon.a(inet_chksum.o)
                              /usr/local/xenon/usr/lib/libxenon.a(tcp_out.o) (inet_chksum_pseudo)
/usr/local/xenon/usr/lib/libxenon.a(icmp.o)
                              /usr/local/xenon/usr/lib/libxenon.a(ip.o) (icmp_input)
/usr/local/xenon/usr/lib/libfat.a(libfat.o)
                              main.o (fatInitDefault)
/usr/local/xenon/usr/lib/libfat.a(partition.o)
                              /usr/local/xenon/usr/lib/libfat.a(libfat.o) (_FAT_partition_constructor)
/usr/local/xenon/usr/lib/libfat.a(cache.o)
                              /usr/local/xenon/usr/lib/libfat.a(partition.o) (_FAT_cache_constructor)
/usr/local/xenon/usr/lib/libfat.a(directory.o)
                              /usr/local/xenon/usr/lib/libfat.a(libfat.o) (_FAT_directory_getVolumeLabel)
/usr/local/xenon/usr/lib/libfat.a(disc.o)
                              /usr/local/xenon/usr/lib/libfat.a(libfat.o) (_FAT_disc_interfaces)
/usr/local/xenon/usr/lib/libfat.a(fatdir.o)
                              /usr/local/xenon/usr/lib/libfat.a(libfat.o) (_FAT_stat_r)
/usr/local/xenon/usr/lib/libfat.a(fatfile.o)
                              /usr/local/xenon/usr/lib/libfat.a(libfat.o) (_FAT_open_r)
/usr/local/xenon/usr/lib/libfat.a(file_allocation_table.o)
                              /usr/local/xenon/usr/lib/libfat.a(directory.o) (_FAT_fat_nextCluster)
/usr/local/xenon/usr/lib/libfat.a(filetime.o)
                              /usr/local/xenon/usr/lib/libfat.a(fatdir.o) (_FAT_filetime_getTimeFromRTC)
/usr/local/xenon/usr/lib/libfat.a(lock.o)
                              /usr/local/xenon/usr/lib/libfat.a(partition.o) (_FAT_lock_init)
/usr/local/xenon/lib/gcc/xenon/9.2.0/32/libgcc.a(crtsavgpr.o)
                              /usr/local/xenon/usr/lib/libxenon.a(dhcp.o) (_savegpr_14)
/usr/local/xenon/lib/gcc/xenon/9.2.0/32/libgcc.a(crtresxgpr.o)
                              /usr/local/xenon/usr/lib/libxenon.a(dhcp.o) (_restgpr_14_x)
/usr/local/xenon/lib/gcc/xenon/9.2.0/32/libgcc.a(unwind-dw2-fde-dip.o)
                              /usr/local/xenon/lib/gcc/xenon/9.2.0/../../../../xenon/lib/../lib/crt1.o (__register_frame)
/usr/local/xenon/xenon/lib/32/libc.a(lib_a-assert.o)
                              /usr/local/xenon/usr/lib/libxenon.a(ata.o) (__assert_func)
/usr/local/xenon/xenon/lib/32/libc.a(lib_a-ctype_.o)
                              /usr/local/xenon/usr/lib/libxenon.a(newlib.o) (_ctype_)
/usr/local/xenon/xenon/lib/32/libc.a(lib_a-errno.o)
                              /usr/local/xenon/usr/lib/libxenon.a(newlib.o) (__errno)
/usr/local/xenon/xenon/lib/32/libc.a(lib_a-exit.o)
                              /usr/local/xenon/lib/gcc/xenon/9.2.0/../../../../xenon/lib/../lib/crt1.o (exit)
/usr/local/xenon/xenon/lib/32/libc.a(lib_a-fclose.o)
                              main.o (fclose)
/usr/local/xenon/xenon/lib/32/libc.a(lib_a-fflush.o)
                              /usr/local/xenon/xenon/lib/32/libc.a(lib_a-fclose.o) (__sflush_r)
/usr/local/xenon/xenon/lib/32/libc.a(lib_a-findfp.o)
                              /usr/local/xenon/xenon/lib/32/libc.a(lib_a-fclose.o) (__sinit)
/usr/local/xenon/xenon/lib/32/libc.a(lib_a-fiprintf.o)
                              /usr/local/xenon/xenon/lib/32/libc.a(lib_a-assert.o) (fiprintf)
/usr/local/xenon/xenon/lib/32/libc.a(lib_a-fopen.o)
                              main.o (fopen)
/usr/local/xenon/xenon/lib/32/libc.a(lib_a-fread.o)
                              /usr/local/xenon/usr/lib/libxenon.a(xenon_sfcx.o) (fread)
/usr/local/xenon/xenon/lib/32/libc.a(lib_a-freer.o)
                              /usr/local/xenon/xenon/lib/32/libc.a(lib_a-fclose.o) (_free_r)
/usr/local/xenon/xenon/lib/32/libc.a(lib_a-fseek.o)
                              /usr/local/xenon/xenon/lib/32/libc.a(lib_a-fopen.o) (_fseek_r)
/usr/local/xenon/xenon/lib/32/libc.a(lib_a-fseeko.o)
                              /usr/local/xenon/xenon/lib/32/libc.a(lib_a-fseek.o) (_fseeko_r)
/usr/local/xenon/xenon/lib/32/libc.a(lib_a-fstatr.o)
                              /usr/local/xenon/xenon/lib/32/libc.a(lib_a-fseeko.o) (_fstat_r)
/usr/local/xenon/xenon/lib/32/libc.a(lib_a-ftell.o)
                              /usr/local/xenon/usr/lib/libxenon.a(xb360.o) (ftell)
/usr/local/xenon/xenon/lib/32/libc.a(lib_a-ftello.o)
                              /usr/local/xenon/xenon/lib/32/libc.a(lib_a-ftell.o) (_ftello_r)
/usr/local/xenon/xenon/lib/32/libc.a(lib_a-fwalk.o)
                              /usr/local/xenon/xenon/lib/32/libc.a(lib_a-findfp.o) (_fwalk)
/usr/local/xenon/xenon/lib/32/libc.a(lib_a-fwrite.o)
                              main.o (fwrite)
/usr/local/xenon/xenon/lib/32/libc.a(lib_a-impure.o)
                              /usr/local/xenon/xenon/lib/32/libc.a(lib_a-exit.o) (_global_impure_ptr)
/usr/local/xenon/xenon/lib/32/libc.a(lib_a-lcltime_r.o)
                              /usr/local/xenon/usr/lib/libfat.a(filetime.o) (localtime_r)
/usr/local/xenon/xenon/lib/32/libc.a(lib_a-locale.o)
                              /usr/local/xenon/usr/lib/libfat.a(directory.o) (__locale_mb_cur_max)
/usr/local/xenon/xenon/lib/32/libc.a(lib_a-makebuf.o)
                              /usr/local/xenon/xenon/lib/32/libc.a(lib_a-fseeko.o) (__smakebuf_r)
/usr/local/xenon/xenon/lib/32/libc.a(lib_a-malign.o)
                              /usr/local/xenon/usr/lib/libxenon.a(ata.o) (memalign)
/usr/local/xenon/xenon/lib/32/libc.a(lib_a-malignr.o)
                              /usr/local/xenon/xenon/lib/32/libc.a(lib_a-malign.o) (_memalign_r)
/usr/local/xenon/xenon/lib/32/libc.a(lib_a-malloc.o)
                              main.o (malloc)
/usr/local/xenon/xenon/lib/32/libc.a(lib_a-mallocr.o)
                              /usr/local/xenon/xenon/lib/32/libc.a(lib_a-findfp.o) (_malloc_r)
/usr/local/xenon/xenon/lib/32/libc.a(lib_a-mbrtowc.o)
                              /usr/local/xenon/usr/lib/libfat.a(directory.o) (mbrtowc)
/usr/local/xenon/xenon/lib/32/libc.a(lib_a-mbsrtowcs.o)
                              /usr/local/xenon/usr/lib/libfat.a(directory.o) (mbsrtowcs)
/usr/local/xenon/xenon/lib/32/libc.a(lib_a-mbtowc_r.o)
                              /usr/local/xenon/xenon/lib/32/libc.a(lib_a-locale.o) (__ascii_mbtowc)
/usr/local/xenon/xenon/lib/32/libc.a(lib_a-memcmp.o)
                              /usr/local/xenon/usr/lib/libxenon.a(newlib.o) (memcmp)
/usr/local/xenon/xenon/lib/32/libc.a(lib_a-memcpy.o)
                              main.o (memcpy)
/usr/local/xenon/xenon/lib/32/libc.a(lib_a-memmove.o)
                              /usr/local/xenon/usr/lib/libfat.a(directory.o) (memmove)
/usr/local/xenon/xenon/lib/32/libc.a(lib_a-memset.o)
                              /usr/local/xenon/usr/lib/libxenon.a(ata.o) (memset)
/usr/local/xenon/xenon/lib/32/libc.a(lib_a-mktime.o)
                              /usr/local/xenon/usr/lib/libfat.a(filetime.o) (mktime)
/usr/local/xenon/xenon/lib/32/libc.a(lib_a-month_lengths.o)
                              /usr/local/xenon/xenon/lib/32/libc.a(lib_a-lcltime_r.o) (__month_lengths)
/usr/local/xenon/xenon/lib/32/libc.a(lib_a-openr.o)
                              /usr/local/xenon/xenon/lib/32/libc.a(lib_a-fopen.o) (_open_r)
/usr/local/xenon/xenon/lib/32/libc.a(lib_a-printf.o)
                              main.o (printf)
/usr/local/xenon/xenon/lib/32/libc.a(lib_a-putchar.o)
                              /usr/local/xenon/usr/lib/libxenon.a(debug.o) (putchar)
/usr/local/xenon/xenon/lib/32/libc.a(lib_a-puts.o)
                              main.o (puts)
/usr/local/xenon/xenon/lib/32/libc.a(lib_a-reent.o)
                              /usr/local/xenon/xenon/lib/32/libc.a(lib_a-fstatr.o) (errno)
/usr/local/xenon/xenon/lib/32/libc.a(lib_a-refill.o)
                              /usr/local/xenon/xenon/lib/32/libc.a(lib_a-fread.o) (__srefill_r)
/usr/local/xenon/xenon/lib/32/libc.a(lib_a-sbrkr.o)
                              /usr/local/xenon/xenon/lib/32/libc.a(lib_a-freer.o) (_sbrk_r)
/usr/local/xenon/xenon/lib/32/libc.a(lib_a-snprintf.o)
                              main.o (snprintf)
/usr/local/xenon/xenon/lib/32/libc.a(lib_a-sprintf.o)
                              /usr/local/xenon/usr/lib/libxenon.a(xenon_syscalls.o) (sprintf)
/usr/local/xenon/xenon/lib/32/libc.a(lib_a-stdio.o)
                              /usr/local/xenon/xenon/lib/32/libc.a(lib_a-findfp.o) (__sread)
/usr/local/xenon/xenon/lib/32/libc.a(lib_a-stpcpy.o)
                              main.o (stpcpy)
/usr/local/xenon/xenon/lib/32/libc.a(lib_a-strcat.o)
                              /usr/local/xenon/usr/lib/libxenon.a(c_except.o) (strcat)
/usr/local/xenon/xenon/lib/32/libc.a(lib_a-strchr.o)
                              /usr/local/xenon/usr/lib/libxenon.a(newlib.o) (strchr)
/usr/local/xenon/xenon/lib/32/libc.a(lib_a-strcmp.o)
                              /usr/local/xenon/usr/lib/libxenon.a(newlib.o) (strcmp)
/usr/local/xenon/xenon/lib/32/libc.a(lib_a-strcpy.o)
                              /usr/local/xenon/usr/lib/libxenon.a(xenon_syscalls.o) (strcpy)
/usr/local/xenon/xenon/lib/32/libc.a(lib_a-strlen.o)
                              main.o (strlen)
/usr/local/xenon/xenon/lib/32/libc.a(lib_a-strncasecmp.o)
                              /usr/local/xenon/usr/lib/libfat.a(libfat.o) (strncasecmp)
/usr/local/xenon/xenon/lib/32/libc.a(lib_a-strncmp.o)
                              /usr/local/xenon/usr/lib/libxenon.a(newlib.o) (strncmp)
/usr/local/xenon/xenon/lib/32/libc.a(lib_a-strncpy.o)
                              /usr/local/xenon/usr/lib/libxenon.a(ata.o) (strncpy)
/usr/local/xenon/xenon/lib/32/libc.a(lib_a-strnlen.o)
                              /usr/local/xenon/usr/lib/libxenon.a(newlib.o) (strnlen)
/usr/local/xenon/xenon/lib/32/libc.a(lib_a-strpbrk.o)
                              /usr/local/xenon/usr/lib/libfat.a(directory.o) (strpbrk)
/usr/local/xenon/xenon/lib/32/libc.a(lib_a-strrchr.o)
                              /usr/local/xenon/usr/lib/libxenon.a(newlib.o) (strrchr)
/usr/local/xenon/xenon/lib/32/libc.a(lib_a-svfprintf.o)
                              /usr/local/xenon/xenon/lib/32/libc.a(lib_a-snprintf.o) (_svfprintf_r)
/usr/local/xenon/xenon/lib/32/libc.a(lib_a-time.o)
                              /usr/local/xenon/usr/lib/libfat.a(filetime.o) (time)
/usr/local/xenon/xenon/lib/32/libc.a(lib_a-towlower.o)
                              /usr/local/xenon/usr/lib/libfat.a(directory.o) (towlower)
/usr/local/xenon/xenon/lib/32/libc.a(lib_a-towupper.o)
                              /usr/local/xenon/usr/lib/libfat.a(directory.o) (towupper)
/usr/local/xenon/xenon/lib/32/libc.a(lib_a-tzcalc_limits.o)
                              /usr/local/xenon/xenon/lib/32/libc.a(lib_a-lcltime_r.o) (__tzcalc_limits)
/usr/local/xenon/xenon/lib/32/libc.a(lib_a-tzlock.o)
                              /usr/local/xenon/xenon/lib/32/libc.a(lib_a-lcltime_r.o) (__tz_lock)
/usr/local/xenon/xenon/lib/32/libc.a(lib_a-tzset.o)
                              /usr/local/xenon/xenon/lib/32/libc.a(lib_a-lcltime_r.o) (_tzset_unlocked)
/usr/local/xenon/xenon/lib/32/libc.a(lib_a-tzset_r.o)
                              /usr/local/xenon/xenon/lib/32/libc.a(lib_a-tzset.o) (_tzset_unlocked_r)
/usr/local/xenon/xenon/lib/32/libc.a(lib_a-tzvars.o)
                              /usr/local/xenon/xenon/lib/32/libc.a(lib_a-tzset_r.o) (_timezone)
/usr/local/xenon/xenon/lib/32/libc.a(lib_a-vfiprintf.o)
                              /usr/local/xenon/xenon/lib/32/libc.a(lib_a-fiprintf.o) (_vfiprintf_r)
/usr/local/xenon/xenon/lib/32/libc.a(lib_a-vfprintf.o)
                              /usr/local/xenon/xenon/lib/32/libc.a(lib_a-printf.o) (_vfprintf_r)
/usr/local/xenon/xenon/lib/32/libc.a(lib_a-vsprintf.o)
                              /usr/local/xenon/usr/lib/libxenon.a(xenon_smc.o) (vsprintf)
/usr/local/xenon/xenon/lib/32/libc.a(lib_a-wcrtomb.o)
                              /usr/local/xenon/usr/lib/libfat.a(directory.o) (wcrtomb)
/usr/local/xenon/xenon/lib/32/libc.a(lib_a-wctob.o)
                              /usr/local/xenon/usr/lib/libfat.a(directory.o) (wctob)
/usr/local/xenon/xenon/lib/32/libc.a(lib_a-wctomb_r.o)
                              /usr/local/xenon/xenon/lib/32/libc.a(lib_a-locale.o) (__ascii_wctomb)
/usr/local/xenon/xenon/lib/32/libc.a(lib_a-writer.o)
                              /usr/local/xenon/xenon/lib/32/libc.a(lib_a-stdio.o) (_write_r)
/usr/local/xenon/xenon/lib/32/libc.a(lib_a-wsetup.o)
                              /usr/local/xenon/xenon/lib/32/libc.a(lib_a-vfiprintf.o) (__swsetup_r)
/usr/local/xenon/xenon/lib/32/libc.a(lib_a-__call_atexit.o)
                              /usr/local/xenon/xenon/lib/32/libc.a(lib_a-exit.o) (__call_exitprocs)
/usr/local/xenon/xenon/lib/32/libc.a(lib_a-closer.o)
                              /usr/local/xenon/xenon/lib/32/libc.a(lib_a-stdio.o) (_close_r)
/usr/local/xenon/xenon/lib/32/libc.a(lib_a-div.o)
                              /usr/local/xenon/xenon/lib/32/libc.a(lib_a-mktime.o) (div)
/usr/local/xenon/xenon/lib/32/libc.a(lib_a-dtoa.o)
                              /usr/local/xenon/xenon/lib/32/libc.a(lib_a-svfprintf.o) (_dtoa_r)
/usr/local/xenon/xenon/lib/32/libc.a(lib_a-flags.o)
                              /usr/local/xenon/xenon/lib/32/libc.a(lib_a-fopen.o) (__sflags)
/usr/local/xenon/xenon/lib/32/libc.a(lib_a-fputwc.o)
                              /usr/local/xenon/xenon/lib/32/libc.a(lib_a-vfiprintf.o) (_fputwc_r)
/usr/local/xenon/xenon/lib/32/libc.a(lib_a-fvwrite.o)
                              /usr/local/xenon/xenon/lib/32/libc.a(lib_a-fwrite.o) (__sfvwrite_r)
/usr/local/xenon/xenon/lib/32/libc.a(lib_a-getenv_r.o)
                              /usr/local/xenon/xenon/lib/32/libc.a(lib_a-tzset_r.o) (_getenv_r)
/usr/local/xenon/xenon/lib/32/libc.a(lib_a-gettimeofdayr.o)
                              /usr/local/xenon/xenon/lib/32/libc.a(lib_a-time.o) (_gettimeofday_r)
/usr/local/xenon/xenon/lib/32/libc.a(lib_a-gettzinfo.o)
                              /usr/local/xenon/xenon/lib/32/libc.a(lib_a-lcltime_r.o) (__gettzinfo)
/usr/local/xenon/xenon/lib/32/libc.a(lib_a-gmtime_r.o)
                              /usr/local/xenon/xenon/lib/32/libc.a(lib_a-lcltime_r.o) (gmtime_r)
/usr/local/xenon/xenon/lib/32/libc.a(lib_a-isattyr.o)
                              /usr/local/xenon/xenon/lib/32/libc.a(lib_a-makebuf.o) (_isatty_r)
/usr/local/xenon/xenon/lib/32/libc.a(lib_a-localeconv.o)
                              /usr/local/xenon/xenon/lib/32/libc.a(lib_a-svfprintf.o) (_localeconv_r)
/usr/local/xenon/xenon/lib/32/libc.a(lib_a-lseekr.o)
                              /usr/local/xenon/xenon/lib/32/libc.a(lib_a-stdio.o) (_lseek_r)
/usr/local/xenon/xenon/lib/32/libc.a(lib_a-mbsnrtowcs.o)
                              /usr/local/xenon/xenon/lib/32/libc.a(lib_a-mbsrtowcs.o) (_mbsnrtowcs_r)
/usr/local/xenon/xenon/lib/32/libc.a(lib_a-memchr.o)
                              /usr/local/xenon/xenon/lib/32/libc.a(lib_a-svfprintf.o) (memchr)
/usr/local/xenon/xenon/lib/32/libc.a(lib_a-mprec.o)
                              /usr/local/xenon/xenon/lib/32/libc.a(lib_a-dtoa.o) (_Balloc)
/usr/local/xenon/xenon/lib/32/libc.a(lib_a-putc.o)
                              /usr/local/xenon/xenon/lib/32/libc.a(lib_a-putchar.o) (_putc_r)
/usr/local/xenon/xenon/lib/32/libc.a(lib_a-readr.o)
                              /usr/local/xenon/xenon/lib/32/libc.a(lib_a-stdio.o) (_read_r)
/usr/local/xenon/xenon/lib/32/libc.a(lib_a-reallocr.o)
                              /usr/local/xenon/xenon/lib/32/libc.a(lib_a-fvwrite.o) (_realloc_r)
/usr/local/xenon/xenon/lib/32/libc.a(lib_a-siscanf.o)
                              /usr/local/xenon/xenon/lib/32/libc.a(lib_a-tzset_r.o) (siscanf)
/usr/local/xenon/xenon/lib/32/libc.a(lib_a-strtoul.o)
                              /usr/local/xenon/xenon/lib/32/libc.a(lib_a-tzset_r.o) (strtoul)
/usr/local/xenon/xenon/lib/32/libc.a(lib_a-svfiprintf.o)
                              /usr/local/xenon/xenon/lib/32/libc.a(lib_a-svfprintf.o) (__ssprint_r)
/usr/local/xenon/xenon/lib/32/libc.a(lib_a-svfiscanf.o)
                              /usr/local/xenon/xenon/lib/32/libc.a(lib_a-siscanf.o) (__ssvfiscanf_r)
/usr/local/xenon/xenon/lib/32/libc.a(lib_a-ungetc.o)
                              /usr/local/xenon/xenon/lib/32/libc.a(lib_a-svfiscanf.o) (__submore)
/usr/local/xenon/xenon/lib/32/libc.a(lib_a-wbuf.o)
                              /usr/local/xenon/xenon/lib/32/libc.a(lib_a-fputwc.o) (__swbuf_r)
/usr/local/xenon/xenon/lib/32/libc.a(lib_a-callocr.o)
                              /usr/local/xenon/xenon/lib/32/libc.a(lib_a-mprec.o) (_calloc_r)
/usr/local/xenon/xenon/lib/32/libc.a(lib_a-environ.o)
                              /usr/local/xenon/xenon/lib/32/libc.a(lib_a-getenv_r.o) (environ)
/usr/local/xenon/xenon/lib/32/libc.a(lib_a-envlock.o)
                              /usr/local/xenon/xenon/lib/32/libc.a(lib_a-getenv_r.o) (__env_lock)
/usr/local/xenon/xenon/lib/32/libc.a(lib_a-iswspace.o)
                              /usr/local/xenon/xenon/lib/32/libc.a(lib_a-svfiscanf.o) (iswspace)
/usr/local/xenon/xenon/lib/32/libc.a(lib_a-iswspace_l.o)
                              /usr/local/xenon/xenon/lib/32/libc.a(lib_a-iswspace.o) (iswspace_l)
/usr/local/xenon/xenon/lib/32/libc.a(lib_a-sccl.o)
                              /usr/local/xenon/xenon/lib/32/libc.a(lib_a-svfiscanf.o) (__sccl)
/usr/local/xenon/xenon/lib/32/libc.a(lib_a-strtol.o)
                              /usr/local/xenon/xenon/lib/32/libc.a(lib_a-svfiscanf.o) (_strtol_r)
/usr/local/xenon/xenon/lib/32/libc.a(lib_a-strtoll.o)
                              /usr/local/xenon/xenon/lib/32/libc.a(lib_a-svfiscanf.o) (_strtoll_r)
/usr/local/xenon/xenon/lib/32/libc.a(lib_a-strtoull.o)
                              /usr/local/xenon/xenon/lib/32/libc.a(lib_a-svfiscanf.o) (_strtoull_r)
/usr/local/xenon/lib/gcc/xenon/9.2.0/32/libgcc.a(_divdi3.o)
                              /usr/local/xenon/xenon/lib/32/libc.a(lib_a-gmtime_r.o) (__divdi3)
/usr/local/xenon/lib/gcc/xenon/9.2.0/32/libgcc.a(_moddi3.o)
                              /usr/local/xenon/xenon/lib/32/libc.a(lib_a-gmtime_r.o) (__moddi3)
/usr/local/xenon/lib/gcc/xenon/9.2.0/32/libgcc.a(_udivdi3.o)
                              /usr/local/xenon/xenon/lib/32/libc.a(lib_a-svfprintf.o) (__udivdi3)
/usr/local/xenon/lib/gcc/xenon/9.2.0/32/libgcc.a(_umoddi3.o)
                              /usr/local/xenon/xenon/lib/32/libc.a(lib_a-svfprintf.o) (__umoddi3)

Allocating common symbols
Common symbol       size              file

current_iphdr_src   0x4               /usr/local/xenon/usr/lib/libxenon.a(ip.o)
atapi               0x24              /usr/local/xenon/usr/lib/libxenon.a(ata.o)
netif_list          0x4               /usr/local/xenon/usr/lib/libxenon.a(netif.o)
RFdev               0x4               /usr/local/xenon/usr/lib/libxenon.a(usbctrl.o)
console_oldbg       0x4               /usr/local/xenon/usr/lib/libxenon.a(console.o)
tcp_active_pcbs     0x4               /usr/local/xenon/usr/lib/libxenon.a(tcp.o)
udp_pcbs            0x4               /usr/local/xenon/usr/lib/libxenon.a(udp.o)
errno               0x4               /usr/local/xenon/xenon/lib/32/libc.a(lib_a-reent.o)
current_netif       0x4               /usr/local/xenon/usr/lib/libxenon.a(ip.o)
console_oldfg       0x4               /usr/local/xenon/usr/lib/libxenon.a(console.o)
tcp_ticks           0x4               /usr/local/xenon/usr/lib/libxenon.a(tcp.o)
tcp_listen_pcbs     0x4               /usr/local/xenon/usr/lib/libxenon.a(tcp.o)
current_iphdr_dest  0x4               /usr/local/xenon/usr/lib/libxenon.a(ip.o)
cnt                 0x4               /usr/local/xenon/usr/lib/libxenon.a(enet.o)
heap_ptr            0x4               /usr/local/xenon/usr/lib/libxenon.a(xenon_syscalls.o)
tcp_tmp_pcb         0x4               /usr/local/xenon/usr/lib/libxenon.a(tcp.o)
tcp_input_pcb       0x4               /usr/local/xenon/usr/lib/libxenon.a(tcp_in.o)
blockbuf            0x4               /usr/local/xenon/usr/lib/libxenon.a(xenon_sfcx.o)
current_header      0x4               /usr/local/xenon/usr/lib/libxenon.a(ip.o)
ata                 0x24              /usr/local/xenon/usr/lib/libxenon.a(ata.o)
dhcp_rx_options_given
                    0xa               /usr/local/xenon/usr/lib/libxenon.a(dhcp.o)
tcp_bound_pcbs      0x4               /usr/local/xenon/usr/lib/libxenon.a(tcp.o)
kmempool            0xc               /usr/local/xenon/usr/lib/libxenon.a(lib_malloc.o)
usb_buses           0x10              /usr/local/xenon/usr/lib/libxenon.a(usbmain.o)
tcp_tw_pcbs         0x4               /usr/local/xenon/usr/lib/libxenon.a(tcp.o)
lwip_stats          0x158             /usr/local/xenon/usr/lib/libxenon.a(stats.o)
netif_default       0x4               /usr/local/xenon/usr/lib/libxenon.a(netif.o)
pagebuf             0x210             /usr/local/xenon/usr/lib/libxenon.a(xenon_config.o)
ehci_hcds           0x380             /usr/local/xenon/usr/lib/libxenon.a(tinyehci.o)
dhcp_rx_options_val
                    0x28              /usr/local/xenon/usr/lib/libxenon.a(dhcp.o)
ram_heap            0x40001c          /usr/local/xenon/usr/lib/libxenon.a(mem.o)

Discarded input sections

 .text          0x0000000000000000        0x0 /usr/local/xenon/lib/gcc/xenon/9.2.0/../../../../xenon/lib/../lib/crt1.o
 .data          0x0000000000000000        0x0 /usr/local/xenon/lib/gcc/xenon/9.2.0/../../../../xenon/lib/../lib/crt1.o
 .bss           0x0000000000000000        0x0 /usr/local/xenon/lib/gcc/xenon/9.2.0/../../../../xenon/lib/../lib/crt1.o
 .text          0x0000000000000000        0x0 /usr/local/xenon/lib/gcc/xenon/9.2.0/../../../../xenon/lib/../lib/crti.o
 .data          0x0000000000000000        0x0 /usr/local/xenon/lib/gcc/xenon/9.2.0/../../../../xenon/lib/../lib/crti.o
 .bss           0x0000000000000000        0x0 /usr/local/xenon/lib/gcc/xenon/9.2.0/../../../../xenon/lib/../lib/crti.o
 .text          0x0000000000000000      0x16c /usr/local/xenon/lib/gcc/xenon/9.2.0/32/crtbegin.o
 .data          0x0000000000000000        0x4 /usr/local/xenon/lib/gcc/xenon/9.2.0/32/crtbegin.o
 .bss           0x0000000000000000        0x8 /usr/local/xenon/lib/gcc/xenon/9.2.0/32/crtbegin.o
 .ctors         0x0000000000000000        0x4 /usr/local/xenon/lib/gcc/xenon/9.2.0/32/crtbegin.o
 .dtors         0x0000000000000000        0x4 /usr/local/xenon/lib/gcc/xenon/9.2.0/32/crtbegin.o
 .tm_clone_table
                0x0000000000000000        0x0 /usr/local/xenon/lib/gcc/xenon/9.2.0/32/crtbegin.o
 .fini          0x0000000000000000        0x4 /usr/local/xenon/lib/gcc/xenon/9.2.0/32/crtbegin.o
 .init          0x0000000000000000        0x4 /usr/local/xenon/lib/gcc/xenon/9.2.0/32/crtbegin.o
 .comment       0x0000000000000000       0x12 /usr/local/xenon/lib/gcc/xenon/9.2.0/32/crtbegin.o
 .note.GNU-stack
                0x0000000000000000        0x0 /usr/local/xenon/lib/gcc/xenon/9.2.0/32/crtbegin.o
 .data          0x0000000000000000        0x0 main.o
 .bss           0x0000000000000000        0x0 main.o
 .text          0x0000000000000000        0x0 /usr/local/xenon/usr/lib/libxenon.a(argv.o)
 .data          0x0000000000000000        0x0 /usr/local/xenon/usr/lib/libxenon.a(argv.o)
 .bss           0x0000000000000000        0x0 /usr/local/xenon/usr/lib/libxenon.a(argv.o)
 .data          0x0000000000000000        0x0 /usr/local/xenon/usr/lib/libxenon.a(startup_from_xell.o)
 .bss           0x0000000000000000        0x0 /usr/local/xenon/usr/lib/libxenon.a(startup_from_xell.o)
 .text          0x0000000000000000        0x0 /usr/local/xenon/usr/lib/libxenon.a(ata.o)
 .data          0x0000000000000000        0x0 /usr/local/xenon/usr/lib/libxenon.a(ata.o)
 .bss           0x0000000000000000        0x0 /usr/local/xenon/usr/lib/libxenon.a(ata.o)
 .text.atapi_inserted
                0x0000000000000000       0x14 /usr/local/xenon/usr/lib/libxenon.a(ata.o)
 .text.atapi_sectors
                0x0000000000000000        0xc /usr/local/xenon/usr/lib/libxenon.a(ata.o)
 .rodata.xenon_atapi_request_sense.str1.1
                0x0000000000000000       0x1b /usr/local/xenon/usr/lib/libxenon.a(ata.o)
 .text.xenon_atapi_request_sense
                0x0000000000000000       0xa8 /usr/local/xenon/usr/lib/libxenon.a(ata.o)
 .rodata.atapi_readsectors.str1.1
                0x0000000000000000       0x15 /usr/local/xenon/usr/lib/libxenon.a(ata.o)
 .text.atapi_readsectors
                0x0000000000000000       0xd4 /usr/local/xenon/usr/lib/libxenon.a(ata.o)
 .rodata.xenon_atapi_set_modeb.str1.1
                0x0000000000000000       0x16 /usr/local/xenon/usr/lib/libxenon.a(ata.o)
 .text.xenon_atapi_set_modeb
                0x0000000000000000       0x84 /usr/local/xenon/usr/lib/libxenon.a(ata.o)
 .rodata.xenon_atapi_get_dvd_key_tsh943a.str1.1
                0x0000000000000000       0x2c /usr/local/xenon/usr/lib/libxenon.a(ata.o)
 .text.xenon_atapi_get_dvd_key_tsh943a
                0x0000000000000000       0xb0 /usr/local/xenon/usr/lib/libxenon.a(ata.o)
 .rodata.xenon_atapi_set_dvd_key.str1.1
                0x0000000000000000       0x5b /usr/local/xenon/usr/lib/libxenon.a(ata.o)
 .text.xenon_atapi_set_dvd_key
                0x0000000000000000      0x120 /usr/local/xenon/usr/lib/libxenon.a(ata.o)
 .data.xenon_atapi_ops
                0x0000000000000000       0x24 /usr/local/xenon/usr/lib/libxenon.a(ata.o)
 .text          0x0000000000000000        0x0 /usr/local/xenon/usr/lib/libxenon.a(newlib.o)
 .data          0x0000000000000000        0x0 /usr/local/xenon/usr/lib/libxenon.a(newlib.o)
 .bss           0x0000000000000000        0x0 /usr/local/xenon/usr/lib/libxenon.a(newlib.o)
 .text.__dirreset
                0x0000000000000000       0x4c /usr/local/xenon/usr/lib/libxenon.a(newlib.o)
 .text.__dirnext
                0x0000000000000000       0x58 /usr/local/xenon/usr/lib/libxenon.a(newlib.o)
 .text.__libc_lock_init
                0x0000000000000000       0x20 /usr/local/xenon/usr/lib/libxenon.a(newlib.o)
 .text.__libc_lock_close
                0x0000000000000000       0x20 /usr/local/xenon/usr/lib/libxenon.a(newlib.o)
 .text.__libc_lock_release
                0x0000000000000000       0x20 /usr/local/xenon/usr/lib/libxenon.a(newlib.o)
 .text.__libc_lock_acquire
                0x0000000000000000       0x20 /usr/local/xenon/usr/lib/libxenon.a(newlib.o)
 .text.dlopen   0x0000000000000000        0x8 /usr/local/xenon/usr/lib/libxenon.a(newlib.o)
 .text.dlsym    0x0000000000000000        0x8 /usr/local/xenon/usr/lib/libxenon.a(newlib.o)
 .text.dlclose  0x0000000000000000        0x8 /usr/local/xenon/usr/lib/libxenon.a(newlib.o)
 .rodata.dlerror.str1.1
                0x0000000000000000        0x1 /usr/local/xenon/usr/lib/libxenon.a(newlib.o)
 .text.dlerror  0x0000000000000000        0xc /usr/local/xenon/usr/lib/libxenon.a(newlib.o)
 .text.popen    0x0000000000000000        0x8 /usr/local/xenon/usr/lib/libxenon.a(newlib.o)
 .text.pclose   0x0000000000000000        0x8 /usr/local/xenon/usr/lib/libxenon.a(newlib.o)
 .text.execve   0x0000000000000000       0x18 /usr/local/xenon/usr/lib/libxenon.a(newlib.o)
 .text.execv    0x0000000000000000       0x18 /usr/local/xenon/usr/lib/libxenon.a(newlib.o)
 .text.execvp   0x0000000000000000       0x18 /usr/local/xenon/usr/lib/libxenon.a(newlib.o)
 .text.fork     0x0000000000000000       0x18 /usr/local/xenon/usr/lib/libxenon.a(newlib.o)
 .text.getpid   0x0000000000000000       0x18 /usr/local/xenon/usr/lib/libxenon.a(newlib.o)
 .text.waitpid  0x0000000000000000        0x8 /usr/local/xenon/usr/lib/libxenon.a(newlib.o)
 .text.mkfifo   0x0000000000000000        0x8 /usr/local/xenon/usr/lib/libxenon.a(newlib.o)
 .text.lstat    0x0000000000000000        0x8 /usr/local/xenon/usr/lib/libxenon.a(newlib.o)
 .text.getrusage
                0x0000000000000000       0x18 /usr/local/xenon/usr/lib/libxenon.a(newlib.o)
 .text.kill     0x0000000000000000       0x18 /usr/local/xenon/usr/lib/libxenon.a(newlib.o)
 .rodata.gethostname.str1.1
                0x0000000000000000        0x6 /usr/local/xenon/usr/lib/libxenon.a(newlib.o)
 .text.gethostname
                0x0000000000000000       0x30 /usr/local/xenon/usr/lib/libxenon.a(newlib.o)
 .text.getuid   0x0000000000000000        0x8 /usr/local/xenon/usr/lib/libxenon.a(newlib.o)
 .text.geteuid  0x0000000000000000        0x8 /usr/local/xenon/usr/lib/libxenon.a(newlib.o)
 .text.getgid   0x0000000000000000        0x8 /usr/local/xenon/usr/lib/libxenon.a(newlib.o)
 .text.getegid  0x0000000000000000        0x8 /usr/local/xenon/usr/lib/libxenon.a(newlib.o)
 .text.setuid   0x0000000000000000        0xc /usr/local/xenon/usr/lib/libxenon.a(newlib.o)
 .text.setgid   0x0000000000000000        0xc /usr/local/xenon/usr/lib/libxenon.a(newlib.o)
 .text.getppid  0x0000000000000000        0x8 /usr/local/xenon/usr/lib/libxenon.a(newlib.o)
 .rodata.getpwuid.str1.1
                0x0000000000000000       0x21 /usr/local/xenon/usr/lib/libxenon.a(newlib.o)
 .text.getpwuid
                0x0000000000000000       0x3c /usr/local/xenon/usr/lib/libxenon.a(newlib.o)
 .text.getpwnam
                0x0000000000000000       0x3c /usr/local/xenon/usr/lib/libxenon.a(newlib.o)
 .text.getgrnam
                0x0000000000000000       0x3c /usr/local/xenon/usr/lib/libxenon.a(newlib.o)
 .text.getgrgid
                0x0000000000000000       0x3c /usr/local/xenon/usr/lib/libxenon.a(newlib.o)
 .text.stat     0x0000000000000000       0x8c /usr/local/xenon/usr/lib/libxenon.a(newlib.o)
 .text.access   0x0000000000000000       0x4c /usr/local/xenon/usr/lib/libxenon.a(newlib.o)
 .text.statvfs  0x0000000000000000       0x8c /usr/local/xenon/usr/lib/libxenon.a(newlib.o)
 .text.fsync    0x0000000000000000       0x80 /usr/local/xenon/usr/lib/libxenon.a(newlib.o)
 .text.ftruncate
                0x0000000000000000       0x88 /usr/local/xenon/usr/lib/libxenon.a(newlib.o)
 .text.link     0x0000000000000000       0xa4 /usr/local/xenon/usr/lib/libxenon.a(newlib.o)
 .text.rename   0x0000000000000000       0xa4 /usr/local/xenon/usr/lib/libxenon.a(newlib.o)
 .text.unlink   0x0000000000000000       0x80 /usr/local/xenon/usr/lib/libxenon.a(newlib.o)
 .text.getcwd   0x0000000000000000       0x78 /usr/local/xenon/usr/lib/libxenon.a(newlib.o)
 .text.chmod    0x0000000000000000       0x8c /usr/local/xenon/usr/lib/libxenon.a(newlib.o)
 .text.fchmod   0x0000000000000000       0x88 /usr/local/xenon/usr/lib/libxenon.a(newlib.o)
 .text.opendir  0x0000000000000000       0xfc /usr/local/xenon/usr/lib/libxenon.a(newlib.o)
 .text.closedir
                0x0000000000000000       0xa4 /usr/local/xenon/usr/lib/libxenon.a(newlib.o)
 .text.readdir  0x0000000000000000      0x100 /usr/local/xenon/usr/lib/libxenon.a(newlib.o)
 .text.rewinddir
                0x0000000000000000       0x30 /usr/local/xenon/usr/lib/libxenon.a(newlib.o)
 .text.seekdir  0x0000000000000000       0x7c /usr/local/xenon/usr/lib/libxenon.a(newlib.o)
 .text.telldir  0x0000000000000000       0x18 /usr/local/xenon/usr/lib/libxenon.a(newlib.o)
 .text.fcntl    0x0000000000000000        0x8 /usr/local/xenon/usr/lib/libxenon.a(newlib.o)
 .text.mkdir    0x0000000000000000       0x84 /usr/local/xenon/usr/lib/libxenon.a(newlib.o)
 .rodata.__FUNCTION__.5485
                0x0000000000000000        0x9 /usr/local/xenon/usr/lib/libxenon.a(newlib.o)
 .rodata.__FUNCTION__.5489
                0x0000000000000000        0x9 /usr/local/xenon/usr/lib/libxenon.a(newlib.o)
 .rodata.__FUNCTION__.5493
                0x0000000000000000        0x9 /usr/local/xenon/usr/lib/libxenon.a(newlib.o)
 .rodata.__FUNCTION__.5497
                0x0000000000000000        0x9 /usr/local/xenon/usr/lib/libxenon.a(newlib.o)
 .sdata.DIRECTORY_SEPARATOR
                0x0000000000000000        0x2 /usr/local/xenon/usr/lib/libxenon.a(newlib.o)
 .sdata.DIRECTORY_THIS
                0x0000000000000000        0x2 /usr/local/xenon/usr/lib/libxenon.a(newlib.o)
 .text          0x0000000000000000        0x0 /usr/local/xenon/usr/lib/libxenon.a(xenon_syscalls.o)
 .data          0x0000000000000000        0x0 /usr/local/xenon/usr/lib/libxenon.a(xenon_syscalls.o)
 .bss           0x0000000000000000        0x0 /usr/local/xenon/usr/lib/libxenon.a(xenon_syscalls.o)
 .data          0x0000000000000000        0x0 /usr/local/xenon/usr/lib/libxenon.a(atomic.o)
 .bss           0x0000000000000000        0x0 /usr/local/xenon/usr/lib/libxenon.a(atomic.o)
 .data          0x0000000000000000        0x0 /usr/local/xenon/usr/lib/libxenon.a(cache.o)
 .bss           0x0000000000000000        0x0 /usr/local/xenon/usr/lib/libxenon.a(cache.o)
 .text          0x0000000000000000        0x0 /usr/local/xenon/usr/lib/libxenon.a(except.o)
 .data          0x0000000000000000        0x0 /usr/local/xenon/usr/lib/libxenon.a(except.o)
 .bss           0x0000000000000000        0x0 /usr/local/xenon/usr/lib/libxenon.a(except.o)
 .text          0x0000000000000000        0x0 /usr/local/xenon/usr/lib/libxenon.a(c_except.o)
 .data          0x0000000000000000        0x0 /usr/local/xenon/usr/lib/libxenon.a(c_except.o)
 .bss           0x0000000000000000        0x0 /usr/local/xenon/usr/lib/libxenon.a(c_except.o)
 .text          0x0000000000000000        0x0 /usr/local/xenon/usr/lib/libxenon.a(vm.o)
 .data          0x0000000000000000        0x0 /usr/local/xenon/usr/lib/libxenon.a(vm.o)
 .bss           0x0000000000000000        0x0 /usr/local/xenon/usr/lib/libxenon.a(vm.o)
 .rodata.vm_common_check_get_idx.str1.1
                0x0000000000000000       0x7e /usr/local/xenon/usr/lib/libxenon.a(vm.o)
 .text.vm_common_check_get_idx
                0x0000000000000000       0x98 /usr/local/xenon/usr/lib/libxenon.a(vm.o)
 .rodata.vm_create_user_mapping.str1.1
                0x0000000000000000       0x1f /usr/local/xenon/usr/lib/libxenon.a(vm.o)
 .text.vm_create_user_mapping
                0x0000000000000000       0xb4 /usr/local/xenon/usr/lib/libxenon.a(vm.o)
 .text.vm_destroy_user_mapping
                0x0000000000000000       0x68 /usr/local/xenon/usr/lib/libxenon.a(vm.o)
 .text.vm_set_user_mapping_flags
                0x0000000000000000       0x7c /usr/local/xenon/usr/lib/libxenon.a(vm.o)
 .text.vm_set_user_mapping_segfault_handler
                0x0000000000000000        0xc /usr/local/xenon/usr/lib/libxenon.a(vm.o)
 .rodata.__func__.4087
                0x0000000000000000       0x18 /usr/local/xenon/usr/lib/libxenon.a(vm.o)
 .rodata.__func__.4094
                0x0000000000000000       0x17 /usr/local/xenon/usr/lib/libxenon.a(vm.o)
 .text          0x0000000000000000        0x0 /usr/local/xenon/usr/lib/libxenon.a(time.o)
 .data          0x0000000000000000        0x0 /usr/local/xenon/usr/lib/libxenon.a(time.o)
 .bss           0x0000000000000000        0x0 /usr/local/xenon/usr/lib/libxenon.a(time.o)
 .text          0x0000000000000000        0x0 /usr/local/xenon/usr/lib/libxenon.a(usbmain.o)
 .data          0x0000000000000000        0x0 /usr/local/xenon/usr/lib/libxenon.a(usbmain.o)
 .bss           0x0000000000000000        0x0 /usr/local/xenon/usr/lib/libxenon.a(usbmain.o)
 .text          0x0000000000000000        0x0 /usr/local/xenon/usr/lib/libxenon.a(tinyehci.o)
 .data          0x0000000000000000        0x0 /usr/local/xenon/usr/lib/libxenon.a(tinyehci.o)
 .bss           0x0000000000000000        0x0 /usr/local/xenon/usr/lib/libxenon.a(tinyehci.o)
 .text.debug_qtds
                0x0000000000000000       0x48 /usr/local/xenon/usr/lib/libxenon.a(tinyehci.o)
 .text.dump_qh  0x0000000000000000       0x48 /usr/local/xenon/usr/lib/libxenon.a(tinyehci.o)
 .text.ehci_release_ports
                0x0000000000000000       0xa8 /usr/local/xenon/usr/lib/libxenon.a(tinyehci.o)
 .text.ehci_open_device
                0x0000000000000000       0x80 /usr/local/xenon/usr/lib/libxenon.a(tinyehci.o)
 .text.ehci_close_device
                0x0000000000000000       0x18 /usr/local/xenon/usr/lib/libxenon.a(tinyehci.o)
 .text.ehci_fd_to_dev
                0x0000000000000000       0x44 /usr/local/xenon/usr/lib/libxenon.a(tinyehci.o)
 .text.ehci_get_device_list
                0x0000000000000000       0x7c /usr/local/xenon/usr/lib/libxenon.a(tinyehci.o)
 .text.USB_WriteBlkMsg
                0x0000000000000000        0x4 /usr/local/xenon/usr/lib/libxenon.a(tinyehci.o)
 .text.USB_WriteCtrlMsg
                0x0000000000000000        0x4 /usr/local/xenon/usr/lib/libxenon.a(tinyehci.o)
 .text.my_memcmp
                0x0000000000000000       0x48 /usr/local/xenon/usr/lib/libxenon.a(tinyehci.o)
 .text.USBStorage_GetMaxLUN
                0x0000000000000000        0x8 /usr/local/xenon/usr/lib/libxenon.a(tinyehci.o)
 .text.USBStorage_Reset
                0x0000000000000000        0x4 /usr/local/xenon/usr/lib/libxenon.a(tinyehci.o)
 .data.usb2mass_ops
                0x0000000000000000       0x24 /usr/local/xenon/usr/lib/libxenon.a(tinyehci.o)
 .text          0x0000000000000000        0x0 /usr/local/xenon/usr/lib/libxenon.a(debug.o)
 .data          0x0000000000000000        0x0 /usr/local/xenon/usr/lib/libxenon.a(debug.o)
 .bss           0x0000000000000000        0x0 /usr/local/xenon/usr/lib/libxenon.a(debug.o)
 .text.seems_valid
                0x0000000000000000       0x28 /usr/local/xenon/usr/lib/libxenon.a(debug.o)
 .rodata.buffer_dump.str1.1
                0x0000000000000000       0x24 /usr/local/xenon/usr/lib/libxenon.a(debug.o)
 .text.buffer_dump
                0x0000000000000000       0x84 /usr/local/xenon/usr/lib/libxenon.a(debug.o)
 .rodata.stack_trace.str1.1
                0x0000000000000000       0x14 /usr/local/xenon/usr/lib/libxenon.a(debug.o)
 .text.stack_trace
                0x0000000000000000      0x57c /usr/local/xenon/usr/lib/libxenon.a(debug.o)
 .text          0x0000000000000000        0x0 /usr/local/xenon/usr/lib/libxenon.a(xenon_smc.o)
 .data          0x0000000000000000        0x0 /usr/local/xenon/usr/lib/libxenon.a(xenon_smc.o)
 .bss           0x0000000000000000        0x0 /usr/local/xenon/usr/lib/libxenon.a(xenon_smc.o)
 .text.xenon_smc_get_ir
                0x0000000000000000       0x14 /usr/local/xenon/usr/lib/libxenon.a(xenon_smc.o)
 .text.xenon_smc_poll
                0x0000000000000000       0x54 /usr/local/xenon/usr/lib/libxenon.a(xenon_smc.o)
 .text.xenon_smc_set_led
                0x0000000000000000       0x40 /usr/local/xenon/usr/lib/libxenon.a(xenon_smc.o)
 .text.xenon_smc_set_power_led
                0x0000000000000000       0x5c /usr/local/xenon/usr/lib/libxenon.a(xenon_smc.o)
 .text.xenon_smc_start_bootanim
                0x0000000000000000       0x4c /usr/local/xenon/usr/lib/libxenon.a(xenon_smc.o)
 .text.xenon_smc_query_sensors
                0x0000000000000000       0x68 /usr/local/xenon/usr/lib/libxenon.a(xenon_smc.o)
 .rodata        0x0000000000000000       0x10 /usr/local/xenon/usr/lib/libxenon.a(xenon_smc.o)
 .text          0x0000000000000000        0x0 /usr/local/xenon/usr/lib/libxenon.a(xenon_power.o)
 .data          0x0000000000000000        0x0 /usr/local/xenon/usr/lib/libxenon.a(xenon_power.o)
 .bss           0x0000000000000000        0x0 /usr/local/xenon/usr/lib/libxenon.a(xenon_power.o)
 .text.xenon_yield
                0x0000000000000000        0x4 /usr/local/xenon/usr/lib/libxenon.a(xenon_power.o)
 .text.xenon_get_speed
                0x0000000000000000       0x14 /usr/local/xenon/usr/lib/libxenon.a(xenon_power.o)
 .text.xenon_sleep_thread
                0x0000000000000000       0x20 /usr/local/xenon/usr/lib/libxenon.a(xenon_power.o)
 .text          0x0000000000000000        0x0 /usr/local/xenon/usr/lib/libxenon.a(xenon_secotp.o)
 .data          0x0000000000000000        0x0 /usr/local/xenon/usr/lib/libxenon.a(xenon_secotp.o)
 .bss           0x0000000000000000        0x0 /usr/local/xenon/usr/lib/libxenon.a(xenon_secotp.o)
 .text          0x0000000000000000        0x0 /usr/local/xenon/usr/lib/libxenon.a(xenon_uart.o)
 .data          0x0000000000000000        0x0 /usr/local/xenon/usr/lib/libxenon.a(xenon_uart.o)
 .bss           0x0000000000000000        0x0 /usr/local/xenon/usr/lib/libxenon.a(xenon_uart.o)
 .text          0x0000000000000000        0x0 /usr/local/xenon/usr/lib/libxenon.a(xenon_sfcx.o)
 .data          0x0000000000000000        0x0 /usr/local/xenon/usr/lib/libxenon.a(xenon_sfcx.o)
 .bss           0x0000000000000000        0x0 /usr/local/xenon/usr/lib/libxenon.a(xenon_sfcx.o)
 .text.sfcx_writereg
                0x0000000000000000       0x10 /usr/local/xenon/usr/lib/libxenon.a(xenon_sfcx.o)
 .rodata.sfcx_write_page.str1.1
                0x0000000000000000       0x31 /usr/local/xenon/usr/lib/libxenon.a(xenon_sfcx.o)
 .text.sfcx_write_page
                0x0000000000000000      0x118 /usr/local/xenon/usr/lib/libxenon.a(xenon_sfcx.o)
 .text.sfcx_write_block
                0x0000000000000000       0x6c /usr/local/xenon/usr/lib/libxenon.a(xenon_sfcx.o)
 .text.sfcx_erase_block
                0x0000000000000000       0xac /usr/local/xenon/usr/lib/libxenon.a(xenon_sfcx.o)
 .text.sfcx_calcecc_ex
                0x0000000000000000       0x7c /usr/local/xenon/usr/lib/libxenon.a(xenon_sfcx.o)
 .text.sfcx_calcecc
                0x0000000000000000       0x14 /usr/local/xenon/usr/lib/libxenon.a(xenon_sfcx.o)
 .text.sfcx_get_blocknumber
                0x0000000000000000       0x5c /usr/local/xenon/usr/lib/libxenon.a(xenon_sfcx.o)
 .text.sfcx_set_blocknumber
                0x0000000000000000       0x60 /usr/local/xenon/usr/lib/libxenon.a(xenon_sfcx.o)
 .text.sfcx_get_blockversion
                0x0000000000000000       0xb0 /usr/local/xenon/usr/lib/libxenon.a(xenon_sfcx.o)
 .text.sfcx_set_blockversion
                0x0000000000000000       0x80 /usr/local/xenon/usr/lib/libxenon.a(xenon_sfcx.o)
 .text.sfcx_set_pagevalid
                0x0000000000000000       0x48 /usr/local/xenon/usr/lib/libxenon.a(xenon_sfcx.o)
 .text.sfcx_set_pageinvalid
                0x0000000000000000       0x58 /usr/local/xenon/usr/lib/libxenon.a(xenon_sfcx.o)
 .text.sfcx_is_pagezeroed
                0x0000000000000000       0x4c /usr/local/xenon/usr/lib/libxenon.a(xenon_sfcx.o)
 .text.sfcx_is_pageerased
                0x0000000000000000       0x4c /usr/local/xenon/usr/lib/libxenon.a(xenon_sfcx.o)
 .text.sfcx_block_to_address
                0x0000000000000000       0x10 /usr/local/xenon/usr/lib/libxenon.a(xenon_sfcx.o)
 .text.sfcx_address_to_block
                0x0000000000000000       0x10 /usr/local/xenon/usr/lib/libxenon.a(xenon_sfcx.o)
 .text.sfcx_block_to_rawaddress
                0x0000000000000000       0x10 /usr/local/xenon/usr/lib/libxenon.a(xenon_sfcx.o)
 .text.sfcx_rawaddress_to_block
                0x0000000000000000       0x10 /usr/local/xenon/usr/lib/libxenon.a(xenon_sfcx.o)
 .rodata.rawflash_checkImage_meta.str1.1
                0x0000000000000000       0x84 /usr/local/xenon/usr/lib/libxenon.a(xenon_sfcx.o)
 .text.rawflash_checkImage_meta
                0x0000000000000000      0x134 /usr/local/xenon/usr/lib/libxenon.a(xenon_sfcx.o)
 .text.rawflash_checkImage_ecd_page
                0x0000000000000000       0x70 /usr/local/xenon/usr/lib/libxenon.a(xenon_sfcx.o)
 .rodata.rawflash_checkImage_ecd.str1.1
                0x0000000000000000       0x20 /usr/local/xenon/usr/lib/libxenon.a(xenon_sfcx.o)
 .text.rawflash_checkImage_ecd
                0x0000000000000000       0x78 /usr/local/xenon/usr/lib/libxenon.a(xenon_sfcx.o)
 .text.rawflash_writeImage
                0x0000000000000000      0x1bc /usr/local/xenon/usr/lib/libxenon.a(xenon_sfcx.o)
 .rodata.rawflash_checkImage.str1.1
                0x0000000000000000       0x5b /usr/local/xenon/usr/lib/libxenon.a(xenon_sfcx.o)
 .text.rawflash_checkImage
                0x0000000000000000       0xc8 /usr/local/xenon/usr/lib/libxenon.a(xenon_sfcx.o)
 .rodata.try_rawflash.str1.1
                0x0000000000000000      0x1b7 /usr/local/xenon/usr/lib/libxenon.a(xenon_sfcx.o)
 .text.try_rawflash
                0x0000000000000000      0x180 /usr/local/xenon/usr/lib/libxenon.a(xenon_sfcx.o)
 .text          0x0000000000000000        0x0 /usr/local/xenon/usr/lib/libxenon.a(xenon_config.o)
 .data          0x0000000000000000        0x0 /usr/local/xenon/usr/lib/libxenon.a(xenon_config.o)
 .bss           0x0000000000000000        0x0 /usr/local/xenon/usr/lib/libxenon.a(xenon_config.o)
 .text.xenon_config_get_mac_addr
                0x0000000000000000       0xb0 /usr/local/xenon/usr/lib/libxenon.a(xenon_config.o)
 .rodata        0x0000000000000000        0x6 /usr/local/xenon/usr/lib/libxenon.a(xenon_config.o)
 COMMON         0x0000000000000000      0x210 /usr/local/xenon/usr/lib/libxenon.a(xenon_config.o)
 .text          0x0000000000000000        0x0 /usr/local/xenon/usr/lib/libxenon.a(xenos.o)
 .data          0x0000000000000000        0x0 /usr/local/xenon/usr/lib/libxenon.a(xenos.o)
 .bss           0x0000000000000000        0x0 /usr/local/xenon/usr/lib/libxenon.a(xenos.o)
 .text          0x0000000000000000        0x0 /usr/local/xenon/usr/lib/libxenon.a(xenos_edid.o)
 .data          0x0000000000000000        0x0 /usr/local/xenon/usr/lib/libxenon.a(xenos_edid.o)
 .bss           0x0000000000000000        0x0 /usr/local/xenon/usr/lib/libxenon.a(xenos_edid.o)
 .text          0x0000000000000000        0x0 /usr/local/xenon/usr/lib/libxenon.a(enet.o)
 .data          0x0000000000000000        0x0 /usr/local/xenon/usr/lib/libxenon.a(enet.o)
 .bss           0x0000000000000000        0x0 /usr/local/xenon/usr/lib/libxenon.a(enet.o)
 .text.enet_linkoutput
                0x0000000000000000      0x134 /usr/local/xenon/usr/lib/libxenon.a(enet.o)
 .text.phy_read
                0x0000000000000000       0x84 /usr/local/xenon/usr/lib/libxenon.a(enet.o)
 .rodata.enet_init.str1.1
                0x0000000000000000       0x6a /usr/local/xenon/usr/lib/libxenon.a(enet.o)
 .text.enet_init
                0x0000000000000000      0x4ec /usr/local/xenon/usr/lib/libxenon.a(enet.o)
 .text.enet_poll
                0x0000000000000000      0x2a8 /usr/local/xenon/usr/lib/libxenon.a(enet.o)
 .sbss          0x0000000000000000        0x4 /usr/local/xenon/usr/lib/libxenon.a(enet.o)
 .text          0x0000000000000000        0x0 /usr/local/xenon/usr/lib/libxenon.a(xb360.o)
 .data          0x0000000000000000        0x0 /usr/local/xenon/usr/lib/libxenon.a(xb360.o)
 .bss           0x0000000000000000        0x0 /usr/local/xenon/usr/lib/libxenon.a(xb360.o)
 .text.kv_get_key.part.0
                0x0000000000000000       0x64 /usr/local/xenon/usr/lib/libxenon.a(xb360.o)
 .rodata.print_key.str1.1
                0x0000000000000000        0xa /usr/local/xenon/usr/lib/libxenon.a(xb360.o)
 .text.print_key
                0x0000000000000000       0x74 /usr/local/xenon/usr/lib/libxenon.a(xb360.o)
 .text.print_key_cserial
                0x0000000000000000       0x60 /usr/local/xenon/usr/lib/libxenon.a(xb360.o)
 .rodata.print_key_mserial.str1.1
                0x0000000000000000        0x5 /usr/local/xenon/usr/lib/libxenon.a(xb360.o)
 .text.print_key_mserial
                0x0000000000000000       0x74 /usr/local/xenon/usr/lib/libxenon.a(xb360.o)
 .text.cpu_get_key
                0x0000000000000000       0x90 /usr/local/xenon/usr/lib/libxenon.a(xb360.o)
 .text.kv_get_key
                0x0000000000000000       0x14 /usr/local/xenon/usr/lib/libxenon.a(xb360.o)
 .rodata.updateXeLL.str1.1
                0x0000000000000000      0x269 /usr/local/xenon/usr/lib/libxenon.a(xb360.o)
 .text.updateXeLL
                0x0000000000000000      0x358 /usr/local/xenon/usr/lib/libxenon.a(xb360.o)
 .text.xenon_get_CPU_PVR
                0x0000000000000000        0x8 /usr/local/xenon/usr/lib/libxenon.a(xb360.o)
 .text.get_virtual_cpukey
                0x0000000000000000       0x84 /usr/local/xenon/usr/lib/libxenon.a(xb360.o)
 .text.xenon_get_kv_size
                0x0000000000000000       0x40 /usr/local/xenon/usr/lib/libxenon.a(xb360.o)
 .text.xenon_get_kv_offset
                0x0000000000000000       0x40 /usr/local/xenon/usr/lib/libxenon.a(xb360.o)
 .text.kv_read  0x0000000000000000      0x194 /usr/local/xenon/usr/lib/libxenon.a(xb360.o)
 .rodata.kv_get_dvd_key.str1.1
                0x0000000000000000      0x187 /usr/local/xenon/usr/lib/libxenon.a(xb360.o)
 .text.kv_get_dvd_key
                0x0000000000000000      0x128 /usr/local/xenon/usr/lib/libxenon.a(xb360.o)
 .rodata.print_cpu_dvd_keys.str1.1
                0x0000000000000000       0x53 /usr/local/xenon/usr/lib/libxenon.a(xb360.o)
 .text.print_cpu_dvd_keys
                0x0000000000000000       0xc4 /usr/local/xenon/usr/lib/libxenon.a(xb360.o)
 .rodata.kv_get_cserial.str1.1
                0x0000000000000000       0x84 /usr/local/xenon/usr/lib/libxenon.a(xb360.o)
 .text.kv_get_cserial
                0x0000000000000000      0x128 /usr/local/xenon/usr/lib/libxenon.a(xb360.o)
 .rodata.kv_get_mserial.str1.1
                0x0000000000000000       0x84 /usr/local/xenon/usr/lib/libxenon.a(xb360.o)
 .text.kv_get_mserial
                0x0000000000000000      0x128 /usr/local/xenon/usr/lib/libxenon.a(xb360.o)
 .rodata.print_serials.str1.1
                0x0000000000000000       0x16 /usr/local/xenon/usr/lib/libxenon.a(xb360.o)
 .text.print_serials
                0x0000000000000000       0x98 /usr/local/xenon/usr/lib/libxenon.a(xb360.o)
 .rodata.kvlookup
                0x0000000000000000      0x2ac /usr/local/xenon/usr/lib/libxenon.a(xb360.o)
 .rodata.xelloffsets
                0x0000000000000000       0x18 /usr/local/xenon/usr/lib/libxenon.a(xb360.o)
 .text          0x0000000000000000        0x0 /usr/local/xenon/usr/lib/libxenon.a(console.o)
 .data          0x0000000000000000        0x0 /usr/local/xenon/usr/lib/libxenon.a(console.o)
 .bss           0x0000000000000000        0x0 /usr/local/xenon/usr/lib/libxenon.a(console.o)
 .rodata.console_clrline.str1.1
                0x0000000000000000        0x5 /usr/local/xenon/usr/lib/libxenon.a(console.o)
 .text.console_clrline
                0x0000000000000000       0x70 /usr/local/xenon/usr/lib/libxenon.a(console.o)
 .text.console_get_dimensions
                0x0000000000000000       0x2c /usr/local/xenon/usr/lib/libxenon.a(console.o)
 .text.console_close
                0x0000000000000000       0x10 /usr/local/xenon/usr/lib/libxenon.a(console.o)
 .sbss          0x0000000000000000        0x8 /usr/local/xenon/usr/lib/libxenon.a(console.o)
 .text          0x0000000000000000        0x0 /usr/local/xenon/usr/lib/libxenon.a(lib_malloc.o)
 .data          0x0000000000000000        0x0 /usr/local/xenon/usr/lib/libxenon.a(lib_malloc.o)
 .bss           0x0000000000000000        0x0 /usr/local/xenon/usr/lib/libxenon.a(lib_malloc.o)
 .text.kmeminit
                0x0000000000000000       0x38 /usr/local/xenon/usr/lib/libxenon.a(lib_malloc.o)
 .text.kmempoolbase
                0x0000000000000000        0x8 /usr/local/xenon/usr/lib/libxenon.a(lib_malloc.o)
 .text.kmempoolsize
                0x0000000000000000        0x8 /usr/local/xenon/usr/lib/libxenon.a(lib_malloc.o)
 .text.kmemstats
                0x0000000000000000       0xe8 /usr/local/xenon/usr/lib/libxenon.a(lib_malloc.o)
 .text          0x0000000000000000        0x0 /usr/local/xenon/usr/lib/libxenon.a(io.o)
 .data          0x0000000000000000        0x0 /usr/local/xenon/usr/lib/libxenon.a(io.o)
 .bss           0x0000000000000000        0x0 /usr/local/xenon/usr/lib/libxenon.a(io.o)
 .text          0x0000000000000000        0x0 /usr/local/xenon/usr/lib/libxenon.a(ohci.o)
 .data          0x0000000000000000        0x0 /usr/local/xenon/usr/lib/libxenon.a(ohci.o)
 .bss           0x0000000000000000        0x0 /usr/local/xenon/usr/lib/libxenon.a(ohci.o)
 .sbss.ohcidebug
                0x0000000000000000        0x4 /usr/local/xenon/usr/lib/libxenon.a(ohci.o)
 .text          0x0000000000000000        0x0 /usr/local/xenon/usr/lib/libxenon.a(usbd.o)
 .data          0x0000000000000000        0x0 /usr/local/xenon/usr/lib/libxenon.a(usbd.o)
 .bss           0x0000000000000000        0x0 /usr/local/xenon/usr/lib/libxenon.a(usbd.o)
 .text.usb_destroy_pipe
                0x0000000000000000       0x68 /usr/local/xenon/usr/lib/libxenon.a(usbd.o)
 .rodata.usb_cancel_request.str1.1
                0x0000000000000000       0x27 /usr/local/xenon/usr/lib/libxenon.a(usbd.o)
 .text.usb_cancel_request
                0x0000000000000000       0x2c /usr/local/xenon/usr/lib/libxenon.a(usbd.o)
 .text.usb_make_sync_request
                0x0000000000000000       0x38 /usr/local/xenon/usr/lib/libxenon.a(usbd.o)
 .text          0x0000000000000000        0x0 /usr/local/xenon/usr/lib/libxenon.a(usbdevs.o)
 .data          0x0000000000000000        0x0 /usr/local/xenon/usr/lib/libxenon.a(usbdevs.o)
 .bss           0x0000000000000000        0x0 /usr/local/xenon/usr/lib/libxenon.a(usbdevs.o)
 .text          0x0000000000000000        0x0 /usr/local/xenon/usr/lib/libxenon.a(usbhid.o)
 .data          0x0000000000000000        0x0 /usr/local/xenon/usr/lib/libxenon.a(usbhid.o)
 .bss           0x0000000000000000        0x0 /usr/local/xenon/usr/lib/libxenon.a(usbhid.o)
 .text          0x0000000000000000        0x0 /usr/local/xenon/usr/lib/libxenon.a(usbhub.o)
 .data          0x0000000000000000        0x0 /usr/local/xenon/usr/lib/libxenon.a(usbhub.o)
 .bss           0x0000000000000000        0x0 /usr/local/xenon/usr/lib/libxenon.a(usbhub.o)
 .rodata.usbhub_dumpbus1.str1.1
                0x0000000000000000       0x4d /usr/local/xenon/usr/lib/libxenon.a(usbhub.o)
 .text.usbhub_dumpbus1
                0x0000000000000000       0x84 /usr/local/xenon/usr/lib/libxenon.a(usbhub.o)
 .text.usbhub_dumpbus
                0x0000000000000000       0x30 /usr/local/xenon/usr/lib/libxenon.a(usbhub.o)
 .text          0x0000000000000000        0x0 /usr/local/xenon/usr/lib/libxenon.a(usb_os.o)
 .data          0x0000000000000000        0x0 /usr/local/xenon/usr/lib/libxenon.a(usb_os.o)
 .bss           0x0000000000000000        0x0 /usr/local/xenon/usr/lib/libxenon.a(usb_os.o)
 .text          0x0000000000000000        0x0 /usr/local/xenon/usr/lib/libxenon.a(xenon_gpio.o)
 .data          0x0000000000000000        0x0 /usr/local/xenon/usr/lib/libxenon.a(xenon_gpio.o)
 .bss           0x0000000000000000        0x0 /usr/local/xenon/usr/lib/libxenon.a(xenon_gpio.o)
 .text.xenon_gpio_control
                0x0000000000000000       0x90 /usr/local/xenon/usr/lib/libxenon.a(xenon_gpio.o)
 .rodata        0x0000000000000000       0x24 /usr/local/xenon/usr/lib/libxenon.a(xenon_gpio.o)
 .data          0x0000000000000000        0x0 /usr/local/xenon/usr/lib/libxenon.a(cpusleep.o)
 .bss           0x0000000000000000        0x0 /usr/local/xenon/usr/lib/libxenon.a(cpusleep.o)
 .text          0x0000000000000000        0x0 /usr/local/xenon/usr/lib/libxenon.a(mem.o)
 .data          0x0000000000000000        0x0 /usr/local/xenon/usr/lib/libxenon.a(mem.o)
 .bss           0x0000000000000000        0x0 /usr/local/xenon/usr/lib/libxenon.a(mem.o)
 .text.mem_init
                0x0000000000000000       0x68 /usr/local/xenon/usr/lib/libxenon.a(mem.o)
 .rodata.mem_free.str1.1
                0x0000000000000000       0x2e /usr/local/xenon/usr/lib/libxenon.a(mem.o)
 .text.mem_free
                0x0000000000000000      0x1f4 /usr/local/xenon/usr/lib/libxenon.a(mem.o)
 .text.mem_trim
                0x0000000000000000      0x198 /usr/local/xenon/usr/lib/libxenon.a(mem.o)
 .text.mem_malloc
                0x0000000000000000      0x1e8 /usr/local/xenon/usr/lib/libxenon.a(mem.o)
 .text.mem_calloc
                0x0000000000000000       0x40 /usr/local/xenon/usr/lib/libxenon.a(mem.o)
 .bss.lfree     0x0000000000000000        0x4 /usr/local/xenon/usr/lib/libxenon.a(mem.o)
 .bss.ram       0x0000000000000000        0x4 /usr/local/xenon/usr/lib/libxenon.a(mem.o)
 .bss.ram_end   0x0000000000000000        0x4 /usr/local/xenon/usr/lib/libxenon.a(mem.o)
 COMMON         0x0000000000000000   0x40001c /usr/local/xenon/usr/lib/libxenon.a(mem.o)
 .text          0x0000000000000000        0x0 /usr/local/xenon/usr/lib/libxenon.a(pbuf.o)
 .data          0x0000000000000000        0x0 /usr/local/xenon/usr/lib/libxenon.a(pbuf.o)
 .bss           0x0000000000000000        0x0 /usr/local/xenon/usr/lib/libxenon.a(pbuf.o)
 .rodata.pbuf_alloced_custom.str1.1
                0x0000000000000000       0x2f /usr/local/xenon/usr/lib/libxenon.a(pbuf.o)
 .text.pbuf_alloced_custom
                0x0000000000000000       0xc4 /usr/local/xenon/usr/lib/libxenon.a(pbuf.o)
 .text.pbuf_header
                0x0000000000000000      0x12c /usr/local/xenon/usr/lib/libxenon.a(pbuf.o)
 .text.pbuf_free
                0x0000000000000000      0x150 /usr/local/xenon/usr/lib/libxenon.a(pbuf.o)
 .text.pbuf_alloc
                0x0000000000000000      0x2c8 /usr/local/xenon/usr/lib/libxenon.a(pbuf.o)
 .text.pbuf_realloc
                0x0000000000000000      0x170 /usr/local/xenon/usr/lib/libxenon.a(pbuf.o)
 .text.pbuf_clen
                0x0000000000000000       0x20 /usr/local/xenon/usr/lib/libxenon.a(pbuf.o)
 .text.pbuf_ref
                0x0000000000000000       0x18 /usr/local/xenon/usr/lib/libxenon.a(pbuf.o)
 .text.pbuf_cat
                0x0000000000000000       0xa8 /usr/local/xenon/usr/lib/libxenon.a(pbuf.o)
 .text.pbuf_chain
                0x0000000000000000       0x30 /usr/local/xenon/usr/lib/libxenon.a(pbuf.o)
 .text.pbuf_dechain
                0x0000000000000000       0xc4 /usr/local/xenon/usr/lib/libxenon.a(pbuf.o)
 .text.pbuf_copy
                0x0000000000000000      0x1dc /usr/local/xenon/usr/lib/libxenon.a(pbuf.o)
 .text.pbuf_copy_partial
                0x0000000000000000       0xf4 /usr/local/xenon/usr/lib/libxenon.a(pbuf.o)
 .text.pbuf_take
                0x0000000000000000      0x124 /usr/local/xenon/usr/lib/libxenon.a(pbuf.o)
 .text.pbuf_coalesce
                0x0000000000000000       0x88 /usr/local/xenon/usr/lib/libxenon.a(pbuf.o)
 .text.pbuf_get_at
                0x0000000000000000       0x38 /usr/local/xenon/usr/lib/libxenon.a(pbuf.o)
 .text.pbuf_memcmp
                0x0000000000000000       0xa0 /usr/local/xenon/usr/lib/libxenon.a(pbuf.o)
 .text.pbuf_memfind
                0x0000000000000000       0x84 /usr/local/xenon/usr/lib/libxenon.a(pbuf.o)
 .text.pbuf_strstr
                0x0000000000000000       0x94 /usr/local/xenon/usr/lib/libxenon.a(pbuf.o)
 .text          0x0000000000000000        0x0 /usr/local/xenon/usr/lib/libxenon.a(stats.o)
 .data          0x0000000000000000        0x0 /usr/local/xenon/usr/lib/libxenon.a(stats.o)
 .bss           0x0000000000000000        0x0 /usr/local/xenon/usr/lib/libxenon.a(stats.o)
 .text.stats_init
                0x0000000000000000        0x4 /usr/local/xenon/usr/lib/libxenon.a(stats.o)
 COMMON         0x0000000000000000      0x158 /usr/local/xenon/usr/lib/libxenon.a(stats.o)
 .text          0x0000000000000000        0x0 /usr/local/xenon/usr/lib/libxenon.a(etharp.o)
 .data          0x0000000000000000        0x0 /usr/local/xenon/usr/lib/libxenon.a(etharp.o)
 .bss           0x0000000000000000        0x0 /usr/local/xenon/usr/lib/libxenon.a(etharp.o)
 .rodata.free_etharp_q.str1.1
                0x0000000000000000       0x32 /usr/local/xenon/usr/lib/libxenon.a(etharp.o)
 .text.free_etharp_q
                0x0000000000000000       0xbc /usr/local/xenon/usr/lib/libxenon.a(etharp.o)
 .text.find_entry
                0x0000000000000000      0x210 /usr/local/xenon/usr/lib/libxenon.a(etharp.o)
 .text.etharp_send_ip
                0x0000000000000000       0x70 /usr/local/xenon/usr/lib/libxenon.a(etharp.o)
 .text.update_arp_entry
                0x0000000000000000      0x120 /usr/local/xenon/usr/lib/libxenon.a(etharp.o)
 .text.etharp_tmr
                0x0000000000000000       0x88 /usr/local/xenon/usr/lib/libxenon.a(etharp.o)
 .text.etharp_find_addr
                0x0000000000000000       0xa0 /usr/local/xenon/usr/lib/libxenon.a(etharp.o)
 .text.etharp_ip_input
                0x0000000000000000       0x74 /usr/local/xenon/usr/lib/libxenon.a(etharp.o)
 .text.etharp_arp_input
                0x0000000000000000      0x1ec /usr/local/xenon/usr/lib/libxenon.a(etharp.o)
 .rodata.etharp_request.str1.1
                0x0000000000000000        0x7 /usr/local/xenon/usr/lib/libxenon.a(etharp.o)
 .text.etharp_request
                0x0000000000000000      0x16c /usr/local/xenon/usr/lib/libxenon.a(etharp.o)
 .text.etharp_query
                0x0000000000000000      0x29c /usr/local/xenon/usr/lib/libxenon.a(etharp.o)
 .text.etharp_output
                0x0000000000000000      0x164 /usr/local/xenon/usr/lib/libxenon.a(etharp.o)
 .text.ethernet_input
                0x0000000000000000       0xf0 /usr/local/xenon/usr/lib/libxenon.a(etharp.o)
 .rodata        0x0000000000000000        0x6 /usr/local/xenon/usr/lib/libxenon.a(etharp.o)
 .bss.arp_table
                0x0000000000000000       0xa0 /usr/local/xenon/usr/lib/libxenon.a(etharp.o)
 .bss.etharp_cached_entry
                0x0000000000000000        0x1 /usr/local/xenon/usr/lib/libxenon.a(etharp.o)
 .sdata.ethbroadcast
                0x0000000000000000        0x6 /usr/local/xenon/usr/lib/libxenon.a(etharp.o)
 .sdata.ethzero
                0x0000000000000000        0x6 /usr/local/xenon/usr/lib/libxenon.a(etharp.o)
 .text          0x0000000000000000        0x0 /usr/local/xenon/usr/lib/libxenon.a(dhcp.o)
 .data          0x0000000000000000        0x0 /usr/local/xenon/usr/lib/libxenon.a(dhcp.o)
 .bss           0x0000000000000000        0x0 /usr/local/xenon/usr/lib/libxenon.a(dhcp.o)
 .text.dhcp_set_state
                0x0000000000000000       0x24 /usr/local/xenon/usr/lib/libxenon.a(dhcp.o)
 .text.dhcp_check
                0x0000000000000000       0x54 /usr/local/xenon/usr/lib/libxenon.a(dhcp.o)
 .rodata.dhcp_bind.str1.1
                0x0000000000000000       0x2f /usr/local/xenon/usr/lib/libxenon.a(dhcp.o)
 .text.dhcp_bind
                0x0000000000000000      0x19c /usr/local/xenon/usr/lib/libxenon.a(dhcp.o)
 .text.dhcp_option_short
                0x0000000000000000       0x64 /usr/local/xenon/usr/lib/libxenon.a(dhcp.o)
 .text.dhcp_option
                0x0000000000000000       0x68 /usr/local/xenon/usr/lib/libxenon.a(dhcp.o)
 .text.dhcp_option_byte
                0x0000000000000000       0x50 /usr/local/xenon/usr/lib/libxenon.a(dhcp.o)
 .text.dhcp_option_trailer
                0x0000000000000000       0xfc /usr/local/xenon/usr/lib/libxenon.a(dhcp.o)
 .text.dhcp_option_long
                0x0000000000000000       0x8c /usr/local/xenon/usr/lib/libxenon.a(dhcp.o)
 .text.dhcp_create_msg
                0x0000000000000000      0x25c /usr/local/xenon/usr/lib/libxenon.a(dhcp.o)
 .text.dhcp_delete_msg
                0x0000000000000000       0xa4 /usr/local/xenon/usr/lib/libxenon.a(dhcp.o)
 .text.dhcp_rebind
                0x0000000000000000      0x148 /usr/local/xenon/usr/lib/libxenon.a(dhcp.o)
 .text.dhcp_select
                0x0000000000000000      0x1d4 /usr/local/xenon/usr/lib/libxenon.a(dhcp.o)
 .text.dhcp_reboot
                0x0000000000000000       0xf8 /usr/local/xenon/usr/lib/libxenon.a(dhcp.o)
 .text.dhcp_discover
                0x0000000000000000      0x144 /usr/local/xenon/usr/lib/libxenon.a(dhcp.o)
 .text.dhcp_recv
                0x0000000000000000      0x828 /usr/local/xenon/usr/lib/libxenon.a(dhcp.o)
 .rodata.dhcp_recv
                0x0000000000000000       0x44 /usr/local/xenon/usr/lib/libxenon.a(dhcp.o)
 .text.dhcp_set_struct
                0x0000000000000000       0xac /usr/local/xenon/usr/lib/libxenon.a(dhcp.o)
 .text.dhcp_cleanup
                0x0000000000000000       0x58 /usr/local/xenon/usr/lib/libxenon.a(dhcp.o)
 .text.dhcp_inform
                0x0000000000000000      0x128 /usr/local/xenon/usr/lib/libxenon.a(dhcp.o)
 .text.dhcp_network_changed
                0x0000000000000000       0x8c /usr/local/xenon/usr/lib/libxenon.a(dhcp.o)
 .text.dhcp_arp_reply
                0x0000000000000000      0x100 /usr/local/xenon/usr/lib/libxenon.a(dhcp.o)
 .text.dhcp_renew
                0x0000000000000000      0x144 /usr/local/xenon/usr/lib/libxenon.a(dhcp.o)
 .text.dhcp_coarse_tmr
                0x0000000000000000       0xa8 /usr/local/xenon/usr/lib/libxenon.a(dhcp.o)
 .text.dhcp_release
                0x0000000000000000      0x104 /usr/local/xenon/usr/lib/libxenon.a(dhcp.o)
 .text.dhcp_fine_tmr
                0x0000000000000000      0x124 /usr/local/xenon/usr/lib/libxenon.a(dhcp.o)
 .text.dhcp_stop
                0x0000000000000000       0xb8 /usr/local/xenon/usr/lib/libxenon.a(dhcp.o)
 .text.dhcp_start
                0x0000000000000000      0x188 /usr/local/xenon/usr/lib/libxenon.a(dhcp.o)
 .data.xid.4702
                0x0000000000000000        0x4 /usr/local/xenon/usr/lib/libxenon.a(dhcp.o)
 COMMON         0x0000000000000000       0x34 /usr/local/xenon/usr/lib/libxenon.a(dhcp.o)
 .text          0x0000000000000000        0x0 /usr/local/xenon/usr/lib/libxenon.a(hmac_sha1.o)
 .data          0x0000000000000000        0x0 /usr/local/xenon/usr/lib/libxenon.a(hmac_sha1.o)
 .bss           0x0000000000000000        0x0 /usr/local/xenon/usr/lib/libxenon.a(hmac_sha1.o)
 .text.HMAC_SHA1_UpdateKey.part.0
                0x0000000000000000       0xbc /usr/local/xenon/usr/lib/libxenon.a(hmac_sha1.o)
 .text.HMAC_SHA1_Init
                0x0000000000000000       0x54 /usr/local/xenon/usr/lib/libxenon.a(hmac_sha1.o)
 .text.HMAC_SHA1_UpdateKey
                0x0000000000000000        0xc /usr/local/xenon/usr/lib/libxenon.a(hmac_sha1.o)
 .text.HMAC_SHA1_EndKey
                0x0000000000000000       0xa0 /usr/local/xenon/usr/lib/libxenon.a(hmac_sha1.o)
 .text.HMAC_SHA1_StartMessage
                0x0000000000000000       0x48 /usr/local/xenon/usr/lib/libxenon.a(hmac_sha1.o)
 .text.HMAC_SHA1_UpdateMessage
                0x0000000000000000        0x8 /usr/local/xenon/usr/lib/libxenon.a(hmac_sha1.o)
 .text.HMAC_SHA1_EndMessage
                0x0000000000000000       0x68 /usr/local/xenon/usr/lib/libxenon.a(hmac_sha1.o)
 .text.HMAC_SHA1_Done
                0x0000000000000000       0x40 /usr/local/xenon/usr/lib/libxenon.a(hmac_sha1.o)
 .text.HMAC_SHA1
                0x0000000000000000       0x88 /usr/local/xenon/usr/lib/libxenon.a(hmac_sha1.o)
 .text          0x0000000000000000        0x0 /usr/local/xenon/usr/lib/libxenon.a(rc4.o)
 .data          0x0000000000000000        0x0 /usr/local/xenon/usr/lib/libxenon.a(rc4.o)
 .bss           0x0000000000000000        0x0 /usr/local/xenon/usr/lib/libxenon.a(rc4.o)
 .text.rc4_init
                0x0000000000000000       0x60 /usr/local/xenon/usr/lib/libxenon.a(rc4.o)
 .text.rc4_crypt
                0x0000000000000000       0x6c /usr/local/xenon/usr/lib/libxenon.a(rc4.o)
 .text          0x0000000000000000        0x0 /usr/local/xenon/usr/lib/libxenon.a(sha1.o)
 .data          0x0000000000000000        0x0 /usr/local/xenon/usr/lib/libxenon.a(sha1.o)
 .bss           0x0000000000000000        0x0 /usr/local/xenon/usr/lib/libxenon.a(sha1.o)
 .text.SHA1_Transform
                0x0000000000000000     0x111c /usr/local/xenon/usr/lib/libxenon.a(sha1.o)
 .text.SHA1_Init
                0x0000000000000000       0x4c /usr/local/xenon/usr/lib/libxenon.a(sha1.o)
 .text.SHA1_Update
                0x0000000000000000       0xe0 /usr/local/xenon/usr/lib/libxenon.a(sha1.o)
 .rodata.SHA1_Final.str1.1
                0x0000000000000000        0x2 /usr/local/xenon/usr/lib/libxenon.a(sha1.o)
 .text.SHA1_Final
                0x0000000000000000      0x104 /usr/local/xenon/usr/lib/libxenon.a(sha1.o)
 .rodata        0x0000000000000000        0x2 /usr/local/xenon/usr/lib/libxenon.a(sha1.o)
 .text          0x0000000000000000        0x0 /usr/local/xenon/usr/lib/libxenon.a(lib_queue.o)
 .data          0x0000000000000000        0x0 /usr/local/xenon/usr/lib/libxenon.a(lib_queue.o)
 .bss           0x0000000000000000        0x0 /usr/local/xenon/usr/lib/libxenon.a(lib_queue.o)
 .text.q_dequeue
                0x0000000000000000       0x14 /usr/local/xenon/usr/lib/libxenon.a(lib_queue.o)
 .text.q_map    0x0000000000000000       0x60 /usr/local/xenon/usr/lib/libxenon.a(lib_queue.o)
 .text.q_count  0x0000000000000000       0x20 /usr/local/xenon/usr/lib/libxenon.a(lib_queue.o)
 .text.q_find   0x0000000000000000       0x30 /usr/local/xenon/usr/lib/libxenon.a(lib_queue.o)
 .text          0x0000000000000000        0x0 /usr/local/xenon/usr/lib/libxenon.a(dummy.o)
 .data          0x0000000000000000        0x0 /usr/local/xenon/usr/lib/libxenon.a(dummy.o)
 .bss           0x0000000000000000        0x0 /usr/local/xenon/usr/lib/libxenon.a(dummy.o)
 .text          0x0000000000000000        0x0 /usr/local/xenon/usr/lib/libxenon.a(usbctrl.o)
 .data          0x0000000000000000        0x0 /usr/local/xenon/usr/lib/libxenon.a(usbctrl.o)
 .bss           0x0000000000000000        0x0 /usr/local/xenon/usr/lib/libxenon.a(usbctrl.o)
 .text.usbctrl_set_rumble
                0x0000000000000000      0x104 /usr/local/xenon/usr/lib/libxenon.a(usbctrl.o)
 .text          0x0000000000000000        0x0 /usr/local/xenon/usr/lib/libxenon.a(usbdebug.o)
 .data          0x0000000000000000        0x0 /usr/local/xenon/usr/lib/libxenon.a(usbdebug.o)
 .bss           0x0000000000000000        0x0 /usr/local/xenon/usr/lib/libxenon.a(usbdebug.o)
 .rodata.usb_dbg_dumpcfgdescr.str1.1
                0x0000000000000000       0x54 /usr/local/xenon/usr/lib/libxenon.a(usbdebug.o)
 .text.usb_dbg_dumpcfgdescr
                0x0000000000000000       0xb0 /usr/local/xenon/usr/lib/libxenon.a(usbdebug.o)
 .rodata.usb_dbg_dumpdevice.str1.1
                0x0000000000000000       0x34 /usr/local/xenon/usr/lib/libxenon.a(usbdebug.o)
 .text.usb_dbg_dumpdevice
                0x0000000000000000       0xb8 /usr/local/xenon/usr/lib/libxenon.a(usbdebug.o)
 .rodata.usb_dbg_showdevice.str1.1
                0x0000000000000000       0x4a /usr/local/xenon/usr/lib/libxenon.a(usbdebug.o)
 .text.usb_dbg_showdevice
                0x0000000000000000       0x48 /usr/local/xenon/usr/lib/libxenon.a(usbdebug.o)
 .text          0x0000000000000000        0x0 /usr/local/xenon/usr/lib/libxenon.a(dns.o)
 .data          0x0000000000000000        0x0 /usr/local/xenon/usr/lib/libxenon.a(dns.o)
 .bss           0x0000000000000000        0x0 /usr/local/xenon/usr/lib/libxenon.a(dns.o)
 .text.dns_parse_name
                0x0000000000000000       0x34 /usr/local/xenon/usr/lib/libxenon.a(dns.o)
 .text.dns_recv
                0x0000000000000000      0x230 /usr/local/xenon/usr/lib/libxenon.a(dns.o)
 .rodata.dns_send.part.0.str1.1
                0x0000000000000000       0x2e /usr/local/xenon/usr/lib/libxenon.a(dns.o)
 .text.dns_send.part.0
                0x0000000000000000      0x18c /usr/local/xenon/usr/lib/libxenon.a(dns.o)
 .text.dns_check_entry
                0x0000000000000000      0x1b8 /usr/local/xenon/usr/lib/libxenon.a(dns.o)
 .text.dns_setserver
                0x0000000000000000       0x40 /usr/local/xenon/usr/lib/libxenon.a(dns.o)
 .rodata.dns_init.str1.1
                0x0000000000000000        0xf /usr/local/xenon/usr/lib/libxenon.a(dns.o)
 .text.dns_init
                0x0000000000000000       0x90 /usr/local/xenon/usr/lib/libxenon.a(dns.o)
 .text.dns_getserver
                0x0000000000000000       0x28 /usr/local/xenon/usr/lib/libxenon.a(dns.o)
 .text.dns_tmr  0x0000000000000000       0x48 /usr/local/xenon/usr/lib/libxenon.a(dns.o)
 .text.dns_gethostbyname
                0x0000000000000000      0x1d4 /usr/local/xenon/usr/lib/libxenon.a(dns.o)
 .bss.dns_payload
                0x0000000000000000        0x4 /usr/local/xenon/usr/lib/libxenon.a(dns.o)
 .bss.dns_payload_buffer
                0x0000000000000000      0x203 /usr/local/xenon/usr/lib/libxenon.a(dns.o)
 .bss.dns_pcb   0x0000000000000000        0x4 /usr/local/xenon/usr/lib/libxenon.a(dns.o)
 .bss.dns_seqno
                0x0000000000000000        0x1 /usr/local/xenon/usr/lib/libxenon.a(dns.o)
 .bss.dns_servers
                0x0000000000000000        0x8 /usr/local/xenon/usr/lib/libxenon.a(dns.o)
 .bss.dns_table
                0x0000000000000000      0x460 /usr/local/xenon/usr/lib/libxenon.a(dns.o)
 .text          0x0000000000000000        0x0 /usr/local/xenon/usr/lib/libxenon.a(memp.o)
 .data          0x0000000000000000        0x0 /usr/local/xenon/usr/lib/libxenon.a(memp.o)
 .bss           0x0000000000000000        0x0 /usr/local/xenon/usr/lib/libxenon.a(memp.o)
 .text.memp_init
                0x0000000000000000       0xb4 /usr/local/xenon/usr/lib/libxenon.a(memp.o)
 .rodata.memp_malloc.str1.1
                0x0000000000000000       0x2f /usr/local/xenon/usr/lib/libxenon.a(memp.o)
 .text.memp_malloc
                0x0000000000000000       0xd4 /usr/local/xenon/usr/lib/libxenon.a(memp.o)
 .text.memp_free
                0x0000000000000000       0x78 /usr/local/xenon/usr/lib/libxenon.a(memp.o)
 .bss.memp_memory
                0x0000000000000000    0xc754b /usr/local/xenon/usr/lib/libxenon.a(memp.o)
 .bss.memp_tab  0x0000000000000000       0x28 /usr/local/xenon/usr/lib/libxenon.a(memp.o)
 .rodata.memp_num
                0x0000000000000000       0x14 /usr/local/xenon/usr/lib/libxenon.a(memp.o)
 .rodata.memp_sizes
                0x0000000000000000       0x14 /usr/local/xenon/usr/lib/libxenon.a(memp.o)
 .text          0x0000000000000000        0x0 /usr/local/xenon/usr/lib/libxenon.a(netif.o)
 .data          0x0000000000000000        0x0 /usr/local/xenon/usr/lib/libxenon.a(netif.o)
 .bss           0x0000000000000000        0x0 /usr/local/xenon/usr/lib/libxenon.a(netif.o)
 .text.netif_init
                0x0000000000000000        0x4 /usr/local/xenon/usr/lib/libxenon.a(netif.o)
 .text.netif_find
                0x0000000000000000       0x60 /usr/local/xenon/usr/lib/libxenon.a(netif.o)
 .text.netif_set_ipaddr
                0x0000000000000000       0xa0 /usr/local/xenon/usr/lib/libxenon.a(netif.o)
 .text.netif_set_addr
                0x0000000000000000       0x54 /usr/local/xenon/usr/lib/libxenon.a(netif.o)
 .rodata.netif_add.str1.1
                0x0000000000000000       0x30 /usr/local/xenon/usr/lib/libxenon.a(netif.o)
 .text.netif_add
                0x0000000000000000       0xb4 /usr/local/xenon/usr/lib/libxenon.a(netif.o)
 .text.netif_set_gw
                0x0000000000000000       0x18 /usr/local/xenon/usr/lib/libxenon.a(netif.o)
 .text.netif_set_netmask
                0x0000000000000000       0x18 /usr/local/xenon/usr/lib/libxenon.a(netif.o)
 .text.netif_set_default
                0x0000000000000000        0xc /usr/local/xenon/usr/lib/libxenon.a(netif.o)
 .text.netif_set_up
                0x0000000000000000       0x70 /usr/local/xenon/usr/lib/libxenon.a(netif.o)
 .text.netif_set_down
                0x0000000000000000       0x28 /usr/local/xenon/usr/lib/libxenon.a(netif.o)
 .text.netif_remove
                0x0000000000000000       0x88 /usr/local/xenon/usr/lib/libxenon.a(netif.o)
 .text.netif_set_status_callback
                0x0000000000000000       0x10 /usr/local/xenon/usr/lib/libxenon.a(netif.o)
 .text.netif_set_link_up
                0x0000000000000000       0x84 /usr/local/xenon/usr/lib/libxenon.a(netif.o)
 .text.netif_set_link_down
                0x0000000000000000       0x28 /usr/local/xenon/usr/lib/libxenon.a(netif.o)
 .text.netif_set_link_callback
                0x0000000000000000       0x10 /usr/local/xenon/usr/lib/libxenon.a(netif.o)
 .bss.netifnum.4689
                0x0000000000000000        0x1 /usr/local/xenon/usr/lib/libxenon.a(netif.o)
 .sbss          0x0000000000000000        0x8 /usr/local/xenon/usr/lib/libxenon.a(netif.o)
 .text          0x0000000000000000        0x0 /usr/local/xenon/usr/lib/libxenon.a(tcp.o)
 .data          0x0000000000000000        0x0 /usr/local/xenon/usr/lib/libxenon.a(tcp.o)
 .bss           0x0000000000000000        0x0 /usr/local/xenon/usr/lib/libxenon.a(tcp.o)
 .text.tcp_accept_null
                0x0000000000000000        0x8 /usr/local/xenon/usr/lib/libxenon.a(tcp.o)
 .text.tcp_new_port
                0x0000000000000000       0x78 /usr/local/xenon/usr/lib/libxenon.a(tcp.o)
 .rodata.tcp_bind.str1.1
                0x0000000000000000       0x2e /usr/local/xenon/usr/lib/libxenon.a(tcp.o)
 .text.tcp_bind
                0x0000000000000000      0x104 /usr/local/xenon/usr/lib/libxenon.a(tcp.o)
 .text.tcp_listen_with_backlog
                0x0000000000000000      0x14c /usr/local/xenon/usr/lib/libxenon.a(tcp.o)
 .text.tcp_update_rcv_ann_wnd
                0x0000000000000000       0x98 /usr/local/xenon/usr/lib/libxenon.a(tcp.o)
 .text.tcp_recved
                0x0000000000000000       0xa8 /usr/local/xenon/usr/lib/libxenon.a(tcp.o)
 .text.tcp_seg_free
                0x0000000000000000       0x4c /usr/local/xenon/usr/lib/libxenon.a(tcp.o)
 .text.tcp_segs_free
                0x0000000000000000       0x34 /usr/local/xenon/usr/lib/libxenon.a(tcp.o)
 .text.tcp_setprio
                0x0000000000000000        0x8 /usr/local/xenon/usr/lib/libxenon.a(tcp.o)
 .text.tcp_seg_copy
                0x0000000000000000       0x48 /usr/local/xenon/usr/lib/libxenon.a(tcp.o)
 .text.tcp_arg  0x0000000000000000        0x8 /usr/local/xenon/usr/lib/libxenon.a(tcp.o)
 .text.tcp_recv
                0x0000000000000000        0x8 /usr/local/xenon/usr/lib/libxenon.a(tcp.o)
 .text.tcp_sent
                0x0000000000000000        0x8 /usr/local/xenon/usr/lib/libxenon.a(tcp.o)
 .text.tcp_err  0x0000000000000000        0x8 /usr/local/xenon/usr/lib/libxenon.a(tcp.o)
 .text.tcp_accept
                0x0000000000000000        0x8 /usr/local/xenon/usr/lib/libxenon.a(tcp.o)
 .text.tcp_poll
                0x0000000000000000        0xc /usr/local/xenon/usr/lib/libxenon.a(tcp.o)
 .text.tcp_pcb_purge
                0x0000000000000000       0x84 /usr/local/xenon/usr/lib/libxenon.a(tcp.o)
 .text.tcp_slowtmr
                0x0000000000000000      0x530 /usr/local/xenon/usr/lib/libxenon.a(tcp.o)
 .text.tcp_pcb_remove
                0x0000000000000000      0x15c /usr/local/xenon/usr/lib/libxenon.a(tcp.o)
 .text.tcp_close_shutdown
                0x0000000000000000      0x244 /usr/local/xenon/usr/lib/libxenon.a(tcp.o)
 .rodata.tcp_close_shutdown
                0x0000000000000000       0x20 /usr/local/xenon/usr/lib/libxenon.a(tcp.o)
 .text.tcp_close
                0x0000000000000000       0x20 /usr/local/xenon/usr/lib/libxenon.a(tcp.o)
 .text.tcp_recv_null
                0x0000000000000000       0x54 /usr/local/xenon/usr/lib/libxenon.a(tcp.o)
 .text.tcp_fasttmr
                0x0000000000000000       0xb0 /usr/local/xenon/usr/lib/libxenon.a(tcp.o)
 .text.tcp_tmr  0x0000000000000000       0x4c /usr/local/xenon/usr/lib/libxenon.a(tcp.o)
 .text.tcp_shutdown
                0x0000000000000000       0xb0 /usr/local/xenon/usr/lib/libxenon.a(tcp.o)
 .text.tcp_abandon
                0x0000000000000000      0x128 /usr/local/xenon/usr/lib/libxenon.a(tcp.o)
 .text.tcp_abort
                0x0000000000000000        0x8 /usr/local/xenon/usr/lib/libxenon.a(tcp.o)
 .text.tcp_next_iss
                0x0000000000000000       0x1c /usr/local/xenon/usr/lib/libxenon.a(tcp.o)
 .text.tcp_alloc
                0x0000000000000000      0x1bc /usr/local/xenon/usr/lib/libxenon.a(tcp.o)
 .text.tcp_new  0x0000000000000000        0x8 /usr/local/xenon/usr/lib/libxenon.a(tcp.o)
 .text.tcp_eff_send_mss
                0x0000000000000000       0x58 /usr/local/xenon/usr/lib/libxenon.a(tcp.o)
 .text.tcp_connect
                0x0000000000000000      0x1c0 /usr/local/xenon/usr/lib/libxenon.a(tcp.o)
 .text.tcp_debug_state_str
                0x0000000000000000       0x14 /usr/local/xenon/usr/lib/libxenon.a(tcp.o)
 .rodata.str1.1
                0x0000000000000000       0x68 /usr/local/xenon/usr/lib/libxenon.a(tcp.o)
 .bss.tcp_timer
                0x0000000000000000        0x1 /usr/local/xenon/usr/lib/libxenon.a(tcp.o)
 .data.iss.4765
                0x0000000000000000        0x4 /usr/local/xenon/usr/lib/libxenon.a(tcp.o)
 .data.port.4616
                0x0000000000000000        0x2 /usr/local/xenon/usr/lib/libxenon.a(tcp.o)
 .rodata.tcp_backoff
                0x0000000000000000        0xd /usr/local/xenon/usr/lib/libxenon.a(tcp.o)
 .rodata.tcp_pcb_lists
                0x0000000000000000       0x10 /usr/local/xenon/usr/lib/libxenon.a(tcp.o)
 .rodata.tcp_state_str
                0x0000000000000000       0x2c /usr/local/xenon/usr/lib/libxenon.a(tcp.o)
 .sdata.tcp_persist_backoff
                0x0000000000000000        0x7 /usr/local/xenon/usr/lib/libxenon.a(tcp.o)
 .sbss          0x0000000000000000       0x18 /usr/local/xenon/usr/lib/libxenon.a(tcp.o)
 .text          0x0000000000000000        0x0 /usr/local/xenon/usr/lib/libxenon.a(ip_addr.o)
 .data          0x0000000000000000        0x0 /usr/local/xenon/usr/lib/libxenon.a(ip_addr.o)
 .bss           0x0000000000000000        0x0 /usr/local/xenon/usr/lib/libxenon.a(ip_addr.o)
 .text.ip4_addr_isbroadcast
                0x0000000000000000       0x58 /usr/local/xenon/usr/lib/libxenon.a(ip_addr.o)
 .text.ip4_addr_netmask_valid
                0x0000000000000000       0x44 /usr/local/xenon/usr/lib/libxenon.a(ip_addr.o)
 .rodata.ipaddr_aton.str1.1
                0x0000000000000000       0x37 /usr/local/xenon/usr/lib/libxenon.a(ip_addr.o)
 .text.ipaddr_aton
                0x0000000000000000      0x1fc /usr/local/xenon/usr/lib/libxenon.a(ip_addr.o)
 .rodata.ipaddr_aton
                0x0000000000000000       0x14 /usr/local/xenon/usr/lib/libxenon.a(ip_addr.o)
 .text.ipaddr_addr
                0x0000000000000000       0x38 /usr/local/xenon/usr/lib/libxenon.a(ip_addr.o)
 .text.ipaddr_ntoa_r
                0x0000000000000000       0xf0 /usr/local/xenon/usr/lib/libxenon.a(ip_addr.o)
 .text.ipaddr_ntoa
                0x0000000000000000       0x10 /usr/local/xenon/usr/lib/libxenon.a(ip_addr.o)
 .bss.str.4104  0x0000000000000000       0x10 /usr/local/xenon/usr/lib/libxenon.a(ip_addr.o)
 .sdata.ip_addr_any
                0x0000000000000000        0x4 /usr/local/xenon/usr/lib/libxenon.a(ip_addr.o)
 .sdata.ip_addr_broadcast
                0x0000000000000000        0x4 /usr/local/xenon/usr/lib/libxenon.a(ip_addr.o)
 .text          0x0000000000000000        0x0 /usr/local/xenon/usr/lib/libxenon.a(ip.o)
 .data          0x0000000000000000        0x0 /usr/local/xenon/usr/lib/libxenon.a(ip.o)
 .bss           0x0000000000000000        0x0 /usr/local/xenon/usr/lib/libxenon.a(ip.o)
 .text.ip_route
                0x0000000000000000       0x7c /usr/local/xenon/usr/lib/libxenon.a(ip.o)
 .text.ip_input
                0x0000000000000000      0x2d4 /usr/local/xenon/usr/lib/libxenon.a(ip.o)
 .rodata.ip_output_if.str1.1
                0x0000000000000000       0x32 /usr/local/xenon/usr/lib/libxenon.a(ip.o)
 .text.ip_output_if
                0x0000000000000000      0x1d4 /usr/local/xenon/usr/lib/libxenon.a(ip.o)
 .text.ip_output
                0x0000000000000000       0xc8 /usr/local/xenon/usr/lib/libxenon.a(ip.o)
 .bss.ip_id     0x0000000000000000        0x2 /usr/local/xenon/usr/lib/libxenon.a(ip.o)
 .sbss          0x0000000000000000       0x10 /usr/local/xenon/usr/lib/libxenon.a(ip.o)
 .text          0x0000000000000000        0x0 /usr/local/xenon/usr/lib/libxenon.a(ip_frag.o)
 .data          0x0000000000000000        0x0 /usr/local/xenon/usr/lib/libxenon.a(ip_frag.o)
 .bss           0x0000000000000000        0x0 /usr/local/xenon/usr/lib/libxenon.a(ip_frag.o)
 .rodata.ip_reass_dequeue_datagram.str1.1
                0x0000000000000000       0x37 /usr/local/xenon/usr/lib/libxenon.a(ip_frag.o)
 .text.ip_reass_dequeue_datagram
                0x0000000000000000       0x64 /usr/local/xenon/usr/lib/libxenon.a(ip_frag.o)
 .text.ip_reass_free_complete_datagram
                0x0000000000000000      0x180 /usr/local/xenon/usr/lib/libxenon.a(ip_frag.o)
 .text.ip_reass_remove_oldest_datagram
                0x0000000000000000       0xd0 /usr/local/xenon/usr/lib/libxenon.a(ip_frag.o)
 .text.ipfrag_free_pbuf_custom
                0x0000000000000000       0x64 /usr/local/xenon/usr/lib/libxenon.a(ip_frag.o)
 .text.ip_reass_tmr
                0x0000000000000000       0x64 /usr/local/xenon/usr/lib/libxenon.a(ip_frag.o)
 .text.ip_reass
                0x0000000000000000      0x49c /usr/local/xenon/usr/lib/libxenon.a(ip_frag.o)
 .text.ip_frag  0x0000000000000000      0x23c /usr/local/xenon/usr/lib/libxenon.a(ip_frag.o)
 .bss.ip_reass_pbufcount
                0x0000000000000000        0x2 /usr/local/xenon/usr/lib/libxenon.a(ip_frag.o)
 .bss.reassdatagrams
                0x0000000000000000        0x4 /usr/local/xenon/usr/lib/libxenon.a(ip_frag.o)
 .text          0x0000000000000000        0x0 /usr/local/xenon/usr/lib/libxenon.a(tcp_out.o)
 .data          0x0000000000000000        0x0 /usr/local/xenon/usr/lib/libxenon.a(tcp_out.o)
 .bss           0x0000000000000000        0x0 /usr/local/xenon/usr/lib/libxenon.a(tcp_out.o)
 .text.tcp_create_segment
                0x0000000000000000       0xe0 /usr/local/xenon/usr/lib/libxenon.a(tcp_out.o)
 .rodata.tcp_pbuf_prealloc.str1.1
                0x0000000000000000       0x32 /usr/local/xenon/usr/lib/libxenon.a(tcp_out.o)
 .text.tcp_pbuf_prealloc
                0x0000000000000000       0xc8 /usr/local/xenon/usr/lib/libxenon.a(tcp_out.o)
 .text.tcp_output_alloc_header.constprop.0
                0x0000000000000000       0xac /usr/local/xenon/usr/lib/libxenon.a(tcp_out.o)
 .text.tcp_write
                0x0000000000000000      0x690 /usr/local/xenon/usr/lib/libxenon.a(tcp_out.o)
 .text.tcp_enqueue_flags
                0x0000000000000000      0x240 /usr/local/xenon/usr/lib/libxenon.a(tcp_out.o)
 .text.tcp_send_fin
                0x0000000000000000       0x44 /usr/local/xenon/usr/lib/libxenon.a(tcp_out.o)
 .text.tcp_send_empty_ack
                0x0000000000000000       0x90 /usr/local/xenon/usr/lib/libxenon.a(tcp_out.o)
 .text.tcp_output
                0x0000000000000000      0x400 /usr/local/xenon/usr/lib/libxenon.a(tcp_out.o)
 .text.tcp_rst  0x0000000000000000      0x118 /usr/local/xenon/usr/lib/libxenon.a(tcp_out.o)
 .text.tcp_rexmit_rto
                0x0000000000000000       0x44 /usr/local/xenon/usr/lib/libxenon.a(tcp_out.o)
 .text.tcp_rexmit
                0x0000000000000000       0x68 /usr/local/xenon/usr/lib/libxenon.a(tcp_out.o)
 .text.tcp_rexmit_fast
                0x0000000000000000       0x84 /usr/local/xenon/usr/lib/libxenon.a(tcp_out.o)
 .text.tcp_keepalive
                0x0000000000000000       0xac /usr/local/xenon/usr/lib/libxenon.a(tcp_out.o)
 .text.tcp_zero_window_probe
                0x0000000000000000      0x124 /usr/local/xenon/usr/lib/libxenon.a(tcp_out.o)
 .text          0x0000000000000000        0x0 /usr/local/xenon/usr/lib/libxenon.a(udp.o)
 .data          0x0000000000000000        0x0 /usr/local/xenon/usr/lib/libxenon.a(udp.o)
 .bss           0x0000000000000000        0x0 /usr/local/xenon/usr/lib/libxenon.a(udp.o)
 .rodata.udp_input.str1.1
                0x0000000000000000       0x2e /usr/local/xenon/usr/lib/libxenon.a(udp.o)
 .text.udp_input
                0x0000000000000000      0x34c /usr/local/xenon/usr/lib/libxenon.a(udp.o)
 .text.udp_bind
                0x0000000000000000      0x124 /usr/local/xenon/usr/lib/libxenon.a(udp.o)
 .text.udp_sendto_if
                0x0000000000000000      0x1a4 /usr/local/xenon/usr/lib/libxenon.a(udp.o)
 .text.udp_sendto
                0x0000000000000000       0x84 /usr/local/xenon/usr/lib/libxenon.a(udp.o)
 .text.udp_send
                0x0000000000000000        0xc /usr/local/xenon/usr/lib/libxenon.a(udp.o)
 .text.udp_connect
                0x0000000000000000       0xa0 /usr/local/xenon/usr/lib/libxenon.a(udp.o)
 .text.udp_disconnect
                0x0000000000000000       0x1c /usr/local/xenon/usr/lib/libxenon.a(udp.o)
 .text.udp_recv
                0x0000000000000000        0xc /usr/local/xenon/usr/lib/libxenon.a(udp.o)
 .text.udp_remove
                0x0000000000000000       0x50 /usr/local/xenon/usr/lib/libxenon.a(udp.o)
 .text.udp_new  0x0000000000000000       0x40 /usr/local/xenon/usr/lib/libxenon.a(udp.o)
 .sbss          0x0000000000000000        0x4 /usr/local/xenon/usr/lib/libxenon.a(udp.o)
 .text          0x0000000000000000        0x0 /usr/local/xenon/usr/lib/libxenon.a(raw.o)
 .data          0x0000000000000000        0x0 /usr/local/xenon/usr/lib/libxenon.a(raw.o)
 .bss           0x0000000000000000        0x0 /usr/local/xenon/usr/lib/libxenon.a(raw.o)
 .text.raw_input
                0x0000000000000000       0xe0 /usr/local/xenon/usr/lib/libxenon.a(raw.o)
 .text.raw_bind
                0x0000000000000000       0x1c /usr/local/xenon/usr/lib/libxenon.a(raw.o)
 .text.raw_connect
                0x0000000000000000       0x1c /usr/local/xenon/usr/lib/libxenon.a(raw.o)
 .text.raw_recv
                0x0000000000000000        0xc /usr/local/xenon/usr/lib/libxenon.a(raw.o)
 .rodata.raw_sendto.str1.1
                0x0000000000000000       0x2e /usr/local/xenon/usr/lib/libxenon.a(raw.o)
 .text.raw_sendto
                0x0000000000000000      0x104 /usr/local/xenon/usr/lib/libxenon.a(raw.o)
 .text.raw_send
                0x0000000000000000        0x8 /usr/local/xenon/usr/lib/libxenon.a(raw.o)
 .text.raw_remove
                0x0000000000000000       0x50 /usr/local/xenon/usr/lib/libxenon.a(raw.o)
 .text.raw_new  0x0000000000000000       0x5c /usr/local/xenon/usr/lib/libxenon.a(raw.o)
 .bss.raw_pcbs  0x0000000000000000        0x4 /usr/local/xenon/usr/lib/libxenon.a(raw.o)
 .text          0x0000000000000000        0x0 /usr/local/xenon/usr/lib/libxenon.a(timers.o)
 .data          0x0000000000000000        0x0 /usr/local/xenon/usr/lib/libxenon.a(timers.o)
 .bss           0x0000000000000000        0x0 /usr/local/xenon/usr/lib/libxenon.a(timers.o)
 .text.tcp_timer_needed
                0x0000000000000000        0x4 /usr/local/xenon/usr/lib/libxenon.a(timers.o)
 .text          0x0000000000000000        0x0 /usr/local/xenon/usr/lib/libxenon.a(input.o)
 .data          0x0000000000000000        0x0 /usr/local/xenon/usr/lib/libxenon.a(input.o)
 .bss           0x0000000000000000        0x0 /usr/local/xenon/usr/lib/libxenon.a(input.o)
 .text.get_controller_data
                0x0000000000000000       0x5c /usr/local/xenon/usr/lib/libxenon.a(input.o)
 .text.set_controller_rumble
                0x0000000000000000        0x4 /usr/local/xenon/usr/lib/libxenon.a(input.o)
 .text          0x0000000000000000        0x0 /usr/local/xenon/usr/lib/libxenon.a(tcp_in.o)
 .data          0x0000000000000000        0x0 /usr/local/xenon/usr/lib/libxenon.a(tcp_in.o)
 .bss           0x0000000000000000        0x0 /usr/local/xenon/usr/lib/libxenon.a(tcp_in.o)
 .text.tcp_oos_insert_segment
                0x0000000000000000       0xc4 /usr/local/xenon/usr/lib/libxenon.a(tcp_in.o)
 .rodata.tcp_receive.str1.1
                0x0000000000000000       0x31 /usr/local/xenon/usr/lib/libxenon.a(tcp_in.o)
 .text.tcp_receive
                0x0000000000000000      0xce8 /usr/local/xenon/usr/lib/libxenon.a(tcp_in.o)
 .text.tcp_parseopt.isra.0
                0x0000000000000000       0xbc /usr/local/xenon/usr/lib/libxenon.a(tcp_in.o)
 .text.tcp_input
                0x0000000000000000      0xd5c /usr/local/xenon/usr/lib/libxenon.a(tcp_in.o)
 .rodata.tcp_input
                0x0000000000000000       0x20 /usr/local/xenon/usr/lib/libxenon.a(tcp_in.o)
 .bss.ackno     0x0000000000000000        0x4 /usr/local/xenon/usr/lib/libxenon.a(tcp_in.o)
 .bss.flags     0x0000000000000000        0x1 /usr/local/xenon/usr/lib/libxenon.a(tcp_in.o)
 .bss.inseg     0x0000000000000000       0x10 /usr/local/xenon/usr/lib/libxenon.a(tcp_in.o)
 .bss.recv_data
                0x0000000000000000        0x4 /usr/local/xenon/usr/lib/libxenon.a(tcp_in.o)
 .bss.recv_flags
                0x0000000000000000        0x1 /usr/local/xenon/usr/lib/libxenon.a(tcp_in.o)
 .bss.seqno     0x0000000000000000        0x4 /usr/local/xenon/usr/lib/libxenon.a(tcp_in.o)
 .bss.tcphdr    0x0000000000000000        0x4 /usr/local/xenon/usr/lib/libxenon.a(tcp_in.o)
 .bss.tcplen    0x0000000000000000        0x2 /usr/local/xenon/usr/lib/libxenon.a(tcp_in.o)
 .sbss          0x0000000000000000        0x4 /usr/local/xenon/usr/lib/libxenon.a(tcp_in.o)
 .text          0x0000000000000000        0x0 /usr/local/xenon/usr/lib/libxenon.a(inet_chksum.o)
 .data          0x0000000000000000        0x0 /usr/local/xenon/usr/lib/libxenon.a(inet_chksum.o)
 .bss           0x0000000000000000        0x0 /usr/local/xenon/usr/lib/libxenon.a(inet_chksum.o)
 .text.lwip_standard_chksum
                0x0000000000000000       0xc4 /usr/local/xenon/usr/lib/libxenon.a(inet_chksum.o)
 .text.inet_chksum_pseudo
                0x0000000000000000       0xe8 /usr/local/xenon/usr/lib/libxenon.a(inet_chksum.o)
 .rodata.inet_chksum_pseudo_partial.str1.1
                0x0000000000000000       0x3b /usr/local/xenon/usr/lib/libxenon.a(inet_chksum.o)
 .text.inet_chksum_pseudo_partial
                0x0000000000000000      0x140 /usr/local/xenon/usr/lib/libxenon.a(inet_chksum.o)
 .text.inet_chksum
                0x0000000000000000       0x28 /usr/local/xenon/usr/lib/libxenon.a(inet_chksum.o)
 .text.inet_chksum_pbuf
                0x0000000000000000       0x90 /usr/local/xenon/usr/lib/libxenon.a(inet_chksum.o)
 .text          0x0000000000000000        0x0 /usr/local/xenon/usr/lib/libxenon.a(icmp.o)
 .data          0x0000000000000000        0x0 /usr/local/xenon/usr/lib/libxenon.a(icmp.o)
 .bss           0x0000000000000000        0x0 /usr/local/xenon/usr/lib/libxenon.a(icmp.o)
 .rodata.icmp_send_response.isra.0.str1.1
                0x0000000000000000       0x34 /usr/local/xenon/usr/lib/libxenon.a(icmp.o)
 .text.icmp_send_response.isra.0
                0x0000000000000000       0xf8 /usr/local/xenon/usr/lib/libxenon.a(icmp.o)
 .text.icmp_input
                0x0000000000000000      0x368 /usr/local/xenon/usr/lib/libxenon.a(icmp.o)
 .text.icmp_dest_unreach
                0x0000000000000000       0x10 /usr/local/xenon/usr/lib/libxenon.a(icmp.o)
 .text.icmp_time_exceeded
                0x0000000000000000       0x10 /usr/local/xenon/usr/lib/libxenon.a(icmp.o)
 .data          0x0000000000000000        0x0 /usr/local/xenon/usr/lib/libfat.a(libfat.o)
 .bss           0x0000000000000000        0x0 /usr/local/xenon/usr/lib/libfat.a(libfat.o)
 .data          0x0000000000000000        0x0 /usr/local/xenon/usr/lib/libfat.a(partition.o)
 .bss           0x0000000000000000        0x0 /usr/local/xenon/usr/lib/libfat.a(partition.o)
 .data          0x0000000000000000        0x0 /usr/local/xenon/usr/lib/libfat.a(cache.o)
 .data          0x0000000000000000        0x0 /usr/local/xenon/usr/lib/libfat.a(directory.o)
 .bss           0x0000000000000000        0x0 /usr/local/xenon/usr/lib/libfat.a(directory.o)
 .data          0x0000000000000000        0x0 /usr/local/xenon/usr/lib/libfat.a(disc.o)
 .bss           0x0000000000000000        0x0 /usr/local/xenon/usr/lib/libfat.a(disc.o)
 .data          0x0000000000000000        0x0 /usr/local/xenon/usr/lib/libfat.a(fatdir.o)
 .bss           0x0000000000000000        0x0 /usr/local/xenon/usr/lib/libfat.a(fatdir.o)
 .data          0x0000000000000000        0x0 /usr/local/xenon/usr/lib/libfat.a(fatfile.o)
 .bss           0x0000000000000000        0x0 /usr/local/xenon/usr/lib/libfat.a(fatfile.o)
 .data          0x0000000000000000        0x0 /usr/local/xenon/usr/lib/libfat.a(file_allocation_table.o)
 .bss           0x0000000000000000        0x0 /usr/local/xenon/usr/lib/libfat.a(file_allocation_table.o)
 .data          0x0000000000000000        0x0 /usr/local/xenon/usr/lib/libfat.a(filetime.o)
 .bss           0x0000000000000000        0x0 /usr/local/xenon/usr/lib/libfat.a(filetime.o)
 .data          0x0000000000000000        0x0 /usr/local/xenon/usr/lib/libfat.a(lock.o)
 .bss           0x0000000000000000        0x0 /usr/local/xenon/usr/lib/libfat.a(lock.o)
 .data          0x0000000000000000        0x0 /usr/local/xenon/lib/gcc/xenon/9.2.0/32/libgcc.a(crtsavgpr.o)
 .bss           0x0000000000000000        0x0 /usr/local/xenon/lib/gcc/xenon/9.2.0/32/libgcc.a(crtsavgpr.o)
 .data          0x0000000000000000        0x0 /usr/local/xenon/lib/gcc/xenon/9.2.0/32/libgcc.a(crtresxgpr.o)
 .bss           0x0000000000000000        0x0 /usr/local/xenon/lib/gcc/xenon/9.2.0/32/libgcc.a(crtresxgpr.o)
 .data          0x0000000000000000        0x0 /usr/local/xenon/lib/gcc/xenon/9.2.0/32/libgcc.a(unwind-dw2-fde-dip.o)
 .data          0x0000000000000000        0x0 /usr/local/xenon/xenon/lib/32/libc.a(lib_a-assert.o)
 .bss           0x0000000000000000        0x0 /usr/local/xenon/xenon/lib/32/libc.a(lib_a-assert.o)
 .text          0x0000000000000000        0x0 /usr/local/xenon/xenon/lib/32/libc.a(lib_a-ctype_.o)
 .data          0x0000000000000000        0x0 /usr/local/xenon/xenon/lib/32/libc.a(lib_a-ctype_.o)
 .bss           0x0000000000000000        0x0 /usr/local/xenon/xenon/lib/32/libc.a(lib_a-ctype_.o)
 .text          0x0000000000000000        0xc /usr/local/xenon/xenon/lib/32/libc.a(lib_a-errno.o)
 .data          0x0000000000000000        0x0 /usr/local/xenon/xenon/lib/32/libc.a(lib_a-errno.o)
 .bss           0x0000000000000000        0x0 /usr/local/xenon/xenon/lib/32/libc.a(lib_a-errno.o)
 .data          0x0000000000000000        0x0 /usr/local/xenon/xenon/lib/32/libc.a(lib_a-exit.o)
 .bss           0x0000000000000000        0x0 /usr/local/xenon/xenon/lib/32/libc.a(lib_a-exit.o)
 .data          0x0000000000000000        0x0 /usr/local/xenon/xenon/lib/32/libc.a(lib_a-fclose.o)
 .bss           0x0000000000000000        0x0 /usr/local/xenon/xenon/lib/32/libc.a(lib_a-fclose.o)
 .data          0x0000000000000000        0x0 /usr/local/xenon/xenon/lib/32/libc.a(lib_a-fflush.o)
 .bss           0x0000000000000000        0x0 /usr/local/xenon/xenon/lib/32/libc.a(lib_a-fflush.o)
 .data          0x0000000000000000        0x0 /usr/local/xenon/xenon/lib/32/libc.a(lib_a-findfp.o)
 .bss           0x0000000000000000        0x0 /usr/local/xenon/xenon/lib/32/libc.a(lib_a-findfp.o)
 .data          0x0000000000000000        0x0 /usr/local/xenon/xenon/lib/32/libc.a(lib_a-fiprintf.o)
 .bss           0x0000000000000000        0x0 /usr/local/xenon/xenon/lib/32/libc.a(lib_a-fiprintf.o)
 .data          0x0000000000000000        0x0 /usr/local/xenon/xenon/lib/32/libc.a(lib_a-fopen.o)
 .bss           0x0000000000000000        0x0 /usr/local/xenon/xenon/lib/32/libc.a(lib_a-fopen.o)
 .text          0x0000000000000000      0x334 /usr/local/xenon/xenon/lib/32/libc.a(lib_a-fread.o)
 .data          0x0000000000000000        0x0 /usr/local/xenon/xenon/lib/32/libc.a(lib_a-fread.o)
 .bss           0x0000000000000000        0x0 /usr/local/xenon/xenon/lib/32/libc.a(lib_a-fread.o)
 .data          0x0000000000000000        0x0 /usr/local/xenon/xenon/lib/32/libc.a(lib_a-freer.o)
 .bss           0x0000000000000000        0x0 /usr/local/xenon/xenon/lib/32/libc.a(lib_a-freer.o)
 .data          0x0000000000000000        0x0 /usr/local/xenon/xenon/lib/32/libc.a(lib_a-fseek.o)
 .bss           0x0000000000000000        0x0 /usr/local/xenon/xenon/lib/32/libc.a(lib_a-fseek.o)
 .data          0x0000000000000000        0x0 /usr/local/xenon/xenon/lib/32/libc.a(lib_a-fseeko.o)
 .bss           0x0000000000000000        0x0 /usr/local/xenon/xenon/lib/32/libc.a(lib_a-fseeko.o)
 .data          0x0000000000000000        0x0 /usr/local/xenon/xenon/lib/32/libc.a(lib_a-fstatr.o)
 .bss           0x0000000000000000        0x0 /usr/local/xenon/xenon/lib/32/libc.a(lib_a-fstatr.o)
 .text          0x0000000000000000       0x18 /usr/local/xenon/xenon/lib/32/libc.a(lib_a-ftell.o)
 .data          0x0000000000000000        0x0 /usr/local/xenon/xenon/lib/32/libc.a(lib_a-ftell.o)
 .bss           0x0000000000000000        0x0 /usr/local/xenon/xenon/lib/32/libc.a(lib_a-ftell.o)
 .text          0x0000000000000000      0x170 /usr/local/xenon/xenon/lib/32/libc.a(lib_a-ftello.o)
 .data          0x0000000000000000        0x0 /usr/local/xenon/xenon/lib/32/libc.a(lib_a-ftello.o)
 .bss           0x0000000000000000        0x0 /usr/local/xenon/xenon/lib/32/libc.a(lib_a-ftello.o)
 .data          0x0000000000000000        0x0 /usr/local/xenon/xenon/lib/32/libc.a(lib_a-fwalk.o)
 .bss           0x0000000000000000        0x0 /usr/local/xenon/xenon/lib/32/libc.a(lib_a-fwalk.o)
 .data          0x0000000000000000        0x0 /usr/local/xenon/xenon/lib/32/libc.a(lib_a-fwrite.o)
 .bss           0x0000000000000000        0x0 /usr/local/xenon/xenon/lib/32/libc.a(lib_a-fwrite.o)
 .text          0x0000000000000000        0x0 /usr/local/xenon/xenon/lib/32/libc.a(lib_a-impure.o)
 .bss           0x0000000000000000        0x0 /usr/local/xenon/xenon/lib/32/libc.a(lib_a-impure.o)
 .data          0x0000000000000000        0x0 /usr/local/xenon/xenon/lib/32/libc.a(lib_a-lcltime_r.o)
 .bss           0x0000000000000000        0x0 /usr/local/xenon/xenon/lib/32/libc.a(lib_a-lcltime_r.o)
 .bss           0x0000000000000000        0x0 /usr/local/xenon/xenon/lib/32/libc.a(lib_a-locale.o)
 .sbss          0x0000000000000000        0x4 /usr/local/xenon/xenon/lib/32/libc.a(lib_a-locale.o)
 .data          0x0000000000000000        0x0 /usr/local/xenon/xenon/lib/32/libc.a(lib_a-makebuf.o)
 .bss           0x0000000000000000        0x0 /usr/local/xenon/xenon/lib/32/libc.a(lib_a-makebuf.o)
 .data          0x0000000000000000        0x0 /usr/local/xenon/xenon/lib/32/libc.a(lib_a-malign.o)
 .bss           0x0000000000000000        0x0 /usr/local/xenon/xenon/lib/32/libc.a(lib_a-malign.o)
 .data          0x0000000000000000        0x0 /usr/local/xenon/xenon/lib/32/libc.a(lib_a-malignr.o)
 .bss           0x0000000000000000        0x0 /usr/local/xenon/xenon/lib/32/libc.a(lib_a-malignr.o)
 .data          0x0000000000000000        0x0 /usr/local/xenon/xenon/lib/32/libc.a(lib_a-malloc.o)
 .bss           0x0000000000000000        0x0 /usr/local/xenon/xenon/lib/32/libc.a(lib_a-malloc.o)
 .data          0x0000000000000000        0x0 /usr/local/xenon/xenon/lib/32/libc.a(lib_a-mbrtowc.o)
 .bss           0x0000000000000000        0x0 /usr/local/xenon/xenon/lib/32/libc.a(lib_a-mbrtowc.o)
 .data          0x0000000000000000        0x0 /usr/local/xenon/xenon/lib/32/libc.a(lib_a-mbsrtowcs.o)
 .bss           0x0000000000000000        0x0 /usr/local/xenon/xenon/lib/32/libc.a(lib_a-mbsrtowcs.o)
 .data          0x0000000000000000        0x0 /usr/local/xenon/xenon/lib/32/libc.a(lib_a-mbtowc_r.o)
 .bss           0x0000000000000000        0x0 /usr/local/xenon/xenon/lib/32/libc.a(lib_a-mbtowc_r.o)
 .data          0x0000000000000000        0x0 /usr/local/xenon/xenon/lib/32/libc.a(lib_a-memcmp.o)
 .bss           0x0000000000000000        0x0 /usr/local/xenon/xenon/lib/32/libc.a(lib_a-memcmp.o)
 .data          0x0000000000000000        0x0 /usr/local/xenon/xenon/lib/32/libc.a(lib_a-memcpy.o)
 .bss           0x0000000000000000        0x0 /usr/local/xenon/xenon/lib/32/libc.a(lib_a-memcpy.o)
 .data          0x0000000000000000        0x0 /usr/local/xenon/xenon/lib/32/libc.a(lib_a-memmove.o)
 .bss           0x0000000000000000        0x0 /usr/local/xenon/xenon/lib/32/libc.a(lib_a-memmove.o)
 .data          0x0000000000000000        0x0 /usr/local/xenon/xenon/lib/32/libc.a(lib_a-memset.o)
 .bss           0x0000000000000000        0x0 /usr/local/xenon/xenon/lib/32/libc.a(lib_a-memset.o)
 .data          0x0000000000000000        0x0 /usr/local/xenon/xenon/lib/32/libc.a(lib_a-mktime.o)
 .bss           0x0000000000000000        0x0 /usr/local/xenon/xenon/lib/32/libc.a(lib_a-mktime.o)
 .text          0x0000000000000000        0x0 /usr/local/xenon/xenon/lib/32/libc.a(lib_a-month_lengths.o)
 .data          0x0000000000000000        0x0 /usr/local/xenon/xenon/lib/32/libc.a(lib_a-month_lengths.o)
 .bss           0x0000000000000000        0x0 /usr/local/xenon/xenon/lib/32/libc.a(lib_a-month_lengths.o)
 .data          0x0000000000000000        0x0 /usr/local/xenon/xenon/lib/32/libc.a(lib_a-openr.o)
 .bss           0x0000000000000000        0x0 /usr/local/xenon/xenon/lib/32/libc.a(lib_a-openr.o)
 .data          0x0000000000000000        0x0 /usr/local/xenon/xenon/lib/32/libc.a(lib_a-printf.o)
 .bss           0x0000000000000000        0x0 /usr/local/xenon/xenon/lib/32/libc.a(lib_a-printf.o)
 .data          0x0000000000000000        0x0 /usr/local/xenon/xenon/lib/32/libc.a(lib_a-putchar.o)
 .bss           0x0000000000000000        0x0 /usr/local/xenon/xenon/lib/32/libc.a(lib_a-putchar.o)
 .data          0x0000000000000000        0x0 /usr/local/xenon/xenon/lib/32/libc.a(lib_a-puts.o)
 .bss           0x0000000000000000        0x0 /usr/local/xenon/xenon/lib/32/libc.a(lib_a-puts.o)
 .text          0x0000000000000000      0x190 /usr/local/xenon/xenon/lib/32/libc.a(lib_a-reent.o)
 .data          0x0000000000000000        0x0 /usr/local/xenon/xenon/lib/32/libc.a(lib_a-reent.o)
 .bss           0x0000000000000000        0x0 /usr/local/xenon/xenon/lib/32/libc.a(lib_a-reent.o)
 .data          0x0000000000000000        0x0 /usr/local/xenon/xenon/lib/32/libc.a(lib_a-refill.o)
 .bss           0x0000000000000000        0x0 /usr/local/xenon/xenon/lib/32/libc.a(lib_a-refill.o)
 .data          0x0000000000000000        0x0 /usr/local/xenon/xenon/lib/32/libc.a(lib_a-sbrkr.o)
 .bss           0x0000000000000000        0x0 /usr/local/xenon/xenon/lib/32/libc.a(lib_a-sbrkr.o)
 .data          0x0000000000000000        0x0 /usr/local/xenon/xenon/lib/32/libc.a(lib_a-snprintf.o)
 .bss           0x0000000000000000        0x0 /usr/local/xenon/xenon/lib/32/libc.a(lib_a-snprintf.o)
 .data          0x0000000000000000        0x0 /usr/local/xenon/xenon/lib/32/libc.a(lib_a-sprintf.o)
 .bss           0x0000000000000000        0x0 /usr/local/xenon/xenon/lib/32/libc.a(lib_a-sprintf.o)
 .data          0x0000000000000000        0x0 /usr/local/xenon/xenon/lib/32/libc.a(lib_a-stdio.o)
 .bss           0x0000000000000000        0x0 /usr/local/xenon/xenon/lib/32/libc.a(lib_a-stdio.o)
 .data          0x0000000000000000        0x0 /usr/local/xenon/xenon/lib/32/libc.a(lib_a-stpcpy.o)
 .bss           0x0000000000000000        0x0 /usr/local/xenon/xenon/lib/32/libc.a(lib_a-stpcpy.o)
 .data          0x0000000000000000        0x0 /usr/local/xenon/xenon/lib/32/libc.a(lib_a-strcat.o)
 .bss           0x0000000000000000        0x0 /usr/local/xenon/xenon/lib/32/libc.a(lib_a-strcat.o)
 .data          0x0000000000000000        0x0 /usr/local/xenon/xenon/lib/32/libc.a(lib_a-strchr.o)
 .bss           0x0000000000000000        0x0 /usr/local/xenon/xenon/lib/32/libc.a(lib_a-strchr.o)
 .data          0x0000000000000000        0x0 /usr/local/xenon/xenon/lib/32/libc.a(lib_a-strcmp.o)
 .bss           0x0000000000000000        0x0 /usr/local/xenon/xenon/lib/32/libc.a(lib_a-strcmp.o)
 .data          0x0000000000000000        0x0 /usr/local/xenon/xenon/lib/32/libc.a(lib_a-strcpy.o)
 .bss           0x0000000000000000        0x0 /usr/local/xenon/xenon/lib/32/libc.a(lib_a-strcpy.o)
 .data          0x0000000000000000        0x0 /usr/local/xenon/xenon/lib/32/libc.a(lib_a-strlen.o)
 .bss           0x0000000000000000        0x0 /usr/local/xenon/xenon/lib/32/libc.a(lib_a-strlen.o)
 .data          0x0000000000000000        0x0 /usr/local/xenon/xenon/lib/32/libc.a(lib_a-strncasecmp.o)
 .bss           0x0000000000000000        0x0 /usr/local/xenon/xenon/lib/32/libc.a(lib_a-strncasecmp.o)
 .data          0x0000000000000000        0x0 /usr/local/xenon/xenon/lib/32/libc.a(lib_a-strncmp.o)
 .bss           0x0000000000000000        0x0 /usr/local/xenon/xenon/lib/32/libc.a(lib_a-strncmp.o)
 .data          0x0000000000000000        0x0 /usr/local/xenon/xenon/lib/32/libc.a(lib_a-strncpy.o)
 .bss           0x0000000000000000        0x0 /usr/local/xenon/xenon/lib/32/libc.a(lib_a-strncpy.o)
 .data          0x0000000000000000        0x0 /usr/local/xenon/xenon/lib/32/libc.a(lib_a-strnlen.o)
 .bss           0x0000000000000000        0x0 /usr/local/xenon/xenon/lib/32/libc.a(lib_a-strnlen.o)
 .data          0x0000000000000000        0x0 /usr/local/xenon/xenon/lib/32/libc.a(lib_a-strpbrk.o)
 .bss           0x0000000000000000        0x0 /usr/local/xenon/xenon/lib/32/libc.a(lib_a-strpbrk.o)
 .data          0x0000000000000000        0x0 /usr/local/xenon/xenon/lib/32/libc.a(lib_a-strrchr.o)
 .bss           0x0000000000000000        0x0 /usr/local/xenon/xenon/lib/32/libc.a(lib_a-strrchr.o)
 .data          0x0000000000000000        0x0 /usr/local/xenon/xenon/lib/32/libc.a(lib_a-svfprintf.o)
 .bss           0x0000000000000000        0x0 /usr/local/xenon/xenon/lib/32/libc.a(lib_a-svfprintf.o)
 .data          0x0000000000000000        0x0 /usr/local/xenon/xenon/lib/32/libc.a(lib_a-time.o)
 .bss           0x0000000000000000        0x0 /usr/local/xenon/xenon/lib/32/libc.a(lib_a-time.o)
 .data          0x0000000000000000        0x0 /usr/local/xenon/xenon/lib/32/libc.a(lib_a-towlower.o)
 .bss           0x0000000000000000        0x0 /usr/local/xenon/xenon/lib/32/libc.a(lib_a-towlower.o)
 .data          0x0000000000000000        0x0 /usr/local/xenon/xenon/lib/32/libc.a(lib_a-towupper.o)
 .bss           0x0000000000000000        0x0 /usr/local/xenon/xenon/lib/32/libc.a(lib_a-towupper.o)
 .data          0x0000000000000000        0x0 /usr/local/xenon/xenon/lib/32/libc.a(lib_a-tzcalc_limits.o)
 .bss           0x0000000000000000        0x0 /usr/local/xenon/xenon/lib/32/libc.a(lib_a-tzcalc_limits.o)
 .data          0x0000000000000000        0x0 /usr/local/xenon/xenon/lib/32/libc.a(lib_a-tzlock.o)
 .bss           0x0000000000000000        0x0 /usr/local/xenon/xenon/lib/32/libc.a(lib_a-tzlock.o)
 .data          0x0000000000000000        0x0 /usr/local/xenon/xenon/lib/32/libc.a(lib_a-tzset.o)
 .bss           0x0000000000000000        0x0 /usr/local/xenon/xenon/lib/32/libc.a(lib_a-tzset.o)
 .data          0x0000000000000000        0x0 /usr/local/xenon/xenon/lib/32/libc.a(lib_a-tzset_r.o)
 .text          0x0000000000000000        0x0 /usr/local/xenon/xenon/lib/32/libc.a(lib_a-tzvars.o)
 .data          0x0000000000000000        0x0 /usr/local/xenon/xenon/lib/32/libc.a(lib_a-tzvars.o)
 .bss           0x0000000000000000        0x0 /usr/local/xenon/xenon/lib/32/libc.a(lib_a-tzvars.o)
 .data          0x0000000000000000        0x0 /usr/local/xenon/xenon/lib/32/libc.a(lib_a-vfiprintf.o)
 .bss           0x0000000000000000        0x0 /usr/local/xenon/xenon/lib/32/libc.a(lib_a-vfiprintf.o)
 .data          0x0000000000000000        0x0 /usr/local/xenon/xenon/lib/32/libc.a(lib_a-vfprintf.o)
 .bss           0x0000000000000000        0x0 /usr/local/xenon/xenon/lib/32/libc.a(lib_a-vfprintf.o)
 .data          0x0000000000000000        0x0 /usr/local/xenon/xenon/lib/32/libc.a(lib_a-vsprintf.o)
 .bss           0x0000000000000000        0x0 /usr/local/xenon/xenon/lib/32/libc.a(lib_a-vsprintf.o)
 .data          0x0000000000000000        0x0 /usr/local/xenon/xenon/lib/32/libc.a(lib_a-wcrtomb.o)
 .bss           0x0000000000000000        0x0 /usr/local/xenon/xenon/lib/32/libc.a(lib_a-wcrtomb.o)
 .data          0x0000000000000000        0x0 /usr/local/xenon/xenon/lib/32/libc.a(lib_a-wctob.o)
 .bss           0x0000000000000000        0x0 /usr/local/xenon/xenon/lib/32/libc.a(lib_a-wctob.o)
 .data          0x0000000000000000        0x0 /usr/local/xenon/xenon/lib/32/libc.a(lib_a-wctomb_r.o)
 .bss           0x0000000000000000        0x0 /usr/local/xenon/xenon/lib/32/libc.a(lib_a-wctomb_r.o)
 .data          0x0000000000000000        0x0 /usr/local/xenon/xenon/lib/32/libc.a(lib_a-writer.o)
 .bss           0x0000000000000000        0x0 /usr/local/xenon/xenon/lib/32/libc.a(lib_a-writer.o)
 .data          0x0000000000000000        0x0 /usr/local/xenon/xenon/lib/32/libc.a(lib_a-wsetup.o)
 .bss           0x0000000000000000        0x0 /usr/local/xenon/xenon/lib/32/libc.a(lib_a-wsetup.o)
 .data          0x0000000000000000        0x0 /usr/local/xenon/xenon/lib/32/libc.a(lib_a-__call_atexit.o)
 .bss           0x0000000000000000        0x0 /usr/local/xenon/xenon/lib/32/libc.a(lib_a-__call_atexit.o)
 .data          0x0000000000000000        0x0 /usr/local/xenon/xenon/lib/32/libc.a(lib_a-closer.o)
 .bss           0x0000000000000000        0x0 /usr/local/xenon/xenon/lib/32/libc.a(lib_a-closer.o)
 .data          0x0000000000000000        0x0 /usr/local/xenon/xenon/lib/32/libc.a(lib_a-div.o)
 .bss           0x0000000000000000        0x0 /usr/local/xenon/xenon/lib/32/libc.a(lib_a-div.o)
 .data          0x0000000000000000        0x0 /usr/local/xenon/xenon/lib/32/libc.a(lib_a-dtoa.o)
 .bss           0x0000000000000000        0x0 /usr/local/xenon/xenon/lib/32/libc.a(lib_a-dtoa.o)
 .data          0x0000000000000000        0x0 /usr/local/xenon/xenon/lib/32/libc.a(lib_a-flags.o)
 .bss           0x0000000000000000        0x0 /usr/local/xenon/xenon/lib/32/libc.a(lib_a-flags.o)
 .data          0x0000000000000000        0x0 /usr/local/xenon/xenon/lib/32/libc.a(lib_a-fputwc.o)
 .bss           0x0000000000000000        0x0 /usr/local/xenon/xenon/lib/32/libc.a(lib_a-fputwc.o)
 .data          0x0000000000000000        0x0 /usr/local/xenon/xenon/lib/32/libc.a(lib_a-fvwrite.o)
 .bss           0x0000000000000000        0x0 /usr/local/xenon/xenon/lib/32/libc.a(lib_a-fvwrite.o)
 .data          0x0000000000000000        0x0 /usr/local/xenon/xenon/lib/32/libc.a(lib_a-getenv_r.o)
 .bss           0x0000000000000000        0x0 /usr/local/xenon/xenon/lib/32/libc.a(lib_a-getenv_r.o)
 .data          0x0000000000000000        0x0 /usr/local/xenon/xenon/lib/32/libc.a(lib_a-gettimeofdayr.o)
 .bss           0x0000000000000000        0x0 /usr/local/xenon/xenon/lib/32/libc.a(lib_a-gettimeofdayr.o)
 .bss           0x0000000000000000        0x0 /usr/local/xenon/xenon/lib/32/libc.a(lib_a-gettzinfo.o)
 .data          0x0000000000000000        0x0 /usr/local/xenon/xenon/lib/32/libc.a(lib_a-gmtime_r.o)
 .bss           0x0000000000000000        0x0 /usr/local/xenon/xenon/lib/32/libc.a(lib_a-gmtime_r.o)
 .data          0x0000000000000000        0x0 /usr/local/xenon/xenon/lib/32/libc.a(lib_a-isattyr.o)
 .bss           0x0000000000000000        0x0 /usr/local/xenon/xenon/lib/32/libc.a(lib_a-isattyr.o)
 .data          0x0000000000000000        0x0 /usr/local/xenon/xenon/lib/32/libc.a(lib_a-localeconv.o)
 .bss           0x0000000000000000        0x0 /usr/local/xenon/xenon/lib/32/libc.a(lib_a-localeconv.o)
 .data          0x0000000000000000        0x0 /usr/local/xenon/xenon/lib/32/libc.a(lib_a-lseekr.o)
 .bss           0x0000000000000000        0x0 /usr/local/xenon/xenon/lib/32/libc.a(lib_a-lseekr.o)
 .data          0x0000000000000000        0x0 /usr/local/xenon/xenon/lib/32/libc.a(lib_a-mbsnrtowcs.o)
 .bss           0x0000000000000000        0x0 /usr/local/xenon/xenon/lib/32/libc.a(lib_a-mbsnrtowcs.o)
 .data          0x0000000000000000        0x0 /usr/local/xenon/xenon/lib/32/libc.a(lib_a-memchr.o)
 .bss           0x0000000000000000        0x0 /usr/local/xenon/xenon/lib/32/libc.a(lib_a-memchr.o)
 .data          0x0000000000000000        0x0 /usr/local/xenon/xenon/lib/32/libc.a(lib_a-mprec.o)
 .bss           0x0000000000000000        0x0 /usr/local/xenon/xenon/lib/32/libc.a(lib_a-mprec.o)
 .data          0x0000000000000000        0x0 /usr/local/xenon/xenon/lib/32/libc.a(lib_a-putc.o)
 .bss           0x0000000000000000        0x0 /usr/local/xenon/xenon/lib/32/libc.a(lib_a-putc.o)
 .data          0x0000000000000000        0x0 /usr/local/xenon/xenon/lib/32/libc.a(lib_a-readr.o)
 .bss           0x0000000000000000        0x0 /usr/local/xenon/xenon/lib/32/libc.a(lib_a-readr.o)
 .data          0x0000000000000000        0x0 /usr/local/xenon/xenon/lib/32/libc.a(lib_a-reallocr.o)
 .bss           0x0000000000000000        0x0 /usr/local/xenon/xenon/lib/32/libc.a(lib_a-reallocr.o)
 .data          0x0000000000000000        0x0 /usr/local/xenon/xenon/lib/32/libc.a(lib_a-siscanf.o)
 .bss           0x0000000000000000        0x0 /usr/local/xenon/xenon/lib/32/libc.a(lib_a-siscanf.o)
 .data          0x0000000000000000        0x0 /usr/local/xenon/xenon/lib/32/libc.a(lib_a-strtoul.o)
 .bss           0x0000000000000000        0x0 /usr/local/xenon/xenon/lib/32/libc.a(lib_a-strtoul.o)
 .data          0x0000000000000000        0x0 /usr/local/xenon/xenon/lib/32/libc.a(lib_a-svfiprintf.o)
 .bss           0x0000000000000000        0x0 /usr/local/xenon/xenon/lib/32/libc.a(lib_a-svfiprintf.o)
 .data          0x0000000000000000        0x0 /usr/local/xenon/xenon/lib/32/libc.a(lib_a-svfiscanf.o)
 .bss           0x0000000000000000        0x0 /usr/local/xenon/xenon/lib/32/libc.a(lib_a-svfiscanf.o)
 .data          0x0000000000000000        0x0 /usr/local/xenon/xenon/lib/32/libc.a(lib_a-ungetc.o)
 .bss           0x0000000000000000        0x0 /usr/local/xenon/xenon/lib/32/libc.a(lib_a-ungetc.o)
 .data          0x0000000000000000        0x0 /usr/local/xenon/xenon/lib/32/libc.a(lib_a-wbuf.o)
 .bss           0x0000000000000000        0x0 /usr/local/xenon/xenon/lib/32/libc.a(lib_a-wbuf.o)
 .data          0x0000000000000000        0x0 /usr/local/xenon/xenon/lib/32/libc.a(lib_a-callocr.o)
 .bss           0x0000000000000000        0x0 /usr/local/xenon/xenon/lib/32/libc.a(lib_a-callocr.o)
 .text          0x0000000000000000        0x0 /usr/local/xenon/xenon/lib/32/libc.a(lib_a-environ.o)
 .data          0x0000000000000000        0x0 /usr/local/xenon/xenon/lib/32/libc.a(lib_a-environ.o)
 .data          0x0000000000000000        0x0 /usr/local/xenon/xenon/lib/32/libc.a(lib_a-envlock.o)
 .bss           0x0000000000000000        0x0 /usr/local/xenon/xenon/lib/32/libc.a(lib_a-envlock.o)
 .data          0x0000000000000000        0x0 /usr/local/xenon/xenon/lib/32/libc.a(lib_a-iswspace.o)
 .bss           0x0000000000000000        0x0 /usr/local/xenon/xenon/lib/32/libc.a(lib_a-iswspace.o)
 .data          0x0000000000000000        0x0 /usr/local/xenon/xenon/lib/32/libc.a(lib_a-iswspace_l.o)
 .bss           0x0000000000000000        0x0 /usr/local/xenon/xenon/lib/32/libc.a(lib_a-iswspace_l.o)
 .data          0x0000000000000000        0x0 /usr/local/xenon/xenon/lib/32/libc.a(lib_a-sccl.o)
 .bss           0x0000000000000000        0x0 /usr/local/xenon/xenon/lib/32/libc.a(lib_a-sccl.o)
 .data          0x0000000000000000        0x0 /usr/local/xenon/xenon/lib/32/libc.a(lib_a-strtol.o)
 .bss           0x0000000000000000        0x0 /usr/local/xenon/xenon/lib/32/libc.a(lib_a-strtol.o)
 .data          0x0000000000000000        0x0 /usr/local/xenon/xenon/lib/32/libc.a(lib_a-strtoll.o)
 .bss           0x0000000000000000        0x0 /usr/local/xenon/xenon/lib/32/libc.a(lib_a-strtoll.o)
 .data          0x0000000000000000        0x0 /usr/local/xenon/xenon/lib/32/libc.a(lib_a-strtoull.o)
 .bss           0x0000000000000000        0x0 /usr/local/xenon/xenon/lib/32/libc.a(lib_a-strtoull.o)
 .data          0x0000000000000000        0x0 /usr/local/xenon/lib/gcc/xenon/9.2.0/32/libgcc.a(_divdi3.o)
 .bss           0x0000000000000000        0x0 /usr/local/xenon/lib/gcc/xenon/9.2.0/32/libgcc.a(_divdi3.o)
 .data          0x0000000000000000        0x0 /usr/local/xenon/lib/gcc/xenon/9.2.0/32/libgcc.a(_moddi3.o)
 .bss           0x0000000000000000        0x0 /usr/local/xenon/lib/gcc/xenon/9.2.0/32/libgcc.a(_moddi3.o)
 .data          0x0000000000000000        0x0 /usr/local/xenon/lib/gcc/xenon/9.2.0/32/libgcc.a(_udivdi3.o)
 .bss           0x0000000000000000        0x0 /usr/local/xenon/lib/gcc/xenon/9.2.0/32/libgcc.a(_udivdi3.o)
 .data          0x0000000000000000        0x0 /usr/local/xenon/lib/gcc/xenon/9.2.0/32/libgcc.a(_umoddi3.o)
 .bss           0x0000000000000000        0x0 /usr/local/xenon/lib/gcc/xenon/9.2.0/32/libgcc.a(_umoddi3.o)
 .text          0x0000000000000000       0x6c /usr/local/xenon/lib/gcc/xenon/9.2.0/32/crtend.o
 .data          0x0000000000000000        0x0 /usr/local/xenon/lib/gcc/xenon/9.2.0/32/crtend.o
 .bss           0x0000000000000000        0x0 /usr/local/xenon/lib/gcc/xenon/9.2.0/32/crtend.o
 .ctors         0x0000000000000000        0x4 /usr/local/xenon/lib/gcc/xenon/9.2.0/32/crtend.o
 .dtors         0x0000000000000000        0x4 /usr/local/xenon/lib/gcc/xenon/9.2.0/32/crtend.o
 .tm_clone_table
                0x0000000000000000        0x0 /usr/local/xenon/lib/gcc/xenon/9.2.0/32/crtend.o
 .init          0x0000000000000000        0x4 /usr/local/xenon/lib/gcc/xenon/9.2.0/32/crtend.o
 .text          0x0000000000000000        0x0 /usr/local/xenon/lib/gcc/xenon/9.2.0/../../../../xenon/lib/../lib/crtn.o
 .data          0x0000000000000000        0x0 /usr/local/xenon/lib/gcc/xenon/9.2.0/../../../../xenon/lib/../lib/crtn.o
 .bss           0x0000000000000000        0x0 /usr/local/xenon/lib/gcc/xenon/9.2.0/../../../../xenon/lib/../lib/crtn.o
 .init          0x0000000000000000       0x10 /usr/local/xenon/lib/gcc/xenon/9.2.0/../../../../xenon/lib/../lib/crtn.o
 .fini          0x0000000000000000       0x10 /usr/local/xenon/lib/gcc/xenon/9.2.0/../../../../xenon/lib/../lib/crtn.o

Memory Configuration

Name             Origin             Length             Attributes
*default*        0x0000000000000000 0xffffffffffffffff

Linker script and memory map

LOAD /usr/local/xenon/lib/gcc/xenon/9.2.0/../../../../xenon/lib/../lib/crt1.o
LOAD /usr/local/xenon/lib/gcc/xenon/9.2.0/../../../../xenon/lib/../lib/crti.o
LOAD /usr/local/xenon/lib/gcc/xenon/9.2.0/32/crtbegin.o
LOAD main.o
LOAD /usr/local/xenon/usr/lib/libxenon.a
LOAD /usr/local/xenon/xenon/lib/32/libm.a
LOAD /usr/local/xenon/usr/lib/libfat.a
LOAD /usr/local/xenon/lib/gcc/xenon/9.2.0/32/libgcc.a
LOAD /usr/local/xenon/xenon/lib/32/libc.a
LOAD /usr/local/xenon/lib/gcc/xenon/9.2.0/32/libgcc.a
LOAD /usr/local/xenon/lib/gcc/xenon/9.2.0/32/crtend.o
LOAD /usr/local/xenon/lib/gcc/xenon/9.2.0/../../../../xenon/lib/../lib/crtn.o
                0x0000000080000000                . = 0x80000000

.text           0x0000000080000000    0x2b308
 *(.except*)
 .except        0x0000000080000000     0x1e30 /usr/local/xenon/usr/lib/libxenon.a(except.o)
                0x0000000080000000                secondary_lock
                0x0000000080000000                exc_base
                0x0000000080000004                secondary_alive
 *(.pagetable)
 .pagetable     0x0000000080001e30       0x40 /usr/local/xenon/usr/lib/libxenon.a(vm.o)
                0x0000000080001e30                pagetable
                0x0000000080001e70                pagetable_end = .
 *(.init*)
 .init          0x0000000080001e70        0xc /usr/local/xenon/lib/gcc/xenon/9.2.0/../../../../xenon/lib/../lib/crti.o
                0x0000000080001e70                _init
 *(.fini*)
 .fini          0x0000000080001e7c        0xc /usr/local/xenon/lib/gcc/xenon/9.2.0/../../../../xenon/lib/../lib/crti.o
                0x0000000080001e7c                _fini
 *(.text*)
 .text.call_ctors
                0x0000000080001e88       0x48 /usr/local/xenon/lib/gcc/xenon/9.2.0/../../../../xenon/lib/../lib/crt1.o
                0x0000000080001e88                call_ctors
 .text.c_register_frame
                0x0000000080001ed0        0xc /usr/local/xenon/lib/gcc/xenon/9.2.0/../../../../xenon/lib/../lib/crt1.o
                0x0000000080001ed0                c_register_frame
 .text.__crtmain
                0x0000000080001edc       0x2c /usr/local/xenon/lib/gcc/xenon/9.2.0/../../../../xenon/lib/../lib/crt1.o
                0x0000000080001edc                __crtmain
 .text          0x0000000080001f08      0x460 main.o
                0x0000000080001f08                write_to_file
                0x0000000080001fa0                dump_1bl
                0x00000000800020f8                get_nand_size
                0x0000000080002128                dump_nand
                0x0000000080002208                dump_fuses
                0x00000000800022f0                dump_data
 .text.startup  0x0000000080002368       0xc0 main.o
                0x0000000080002368                main
 .text.__check_argv
                0x0000000080002428       0x24 /usr/local/xenon/usr/lib/libxenon.a(argv.o)
                0x0000000080002428                __check_argv
 *fill*         0x000000008000244c       0xb4 
 .text          0x0000000080002500      0x2f4 /usr/local/xenon/usr/lib/libxenon.a(startup_from_xell.o)
                0x0000000080002500                _start
                0x00000000800026f8                wait
                0x0000000080002780                return_to_xell
 .text.xenon_ata_wait_ready
                0x00000000800027f4       0x1c /usr/local/xenon/usr/lib/libxenon.a(ata.o)
 .text.ata_startup
                0x0000000080002810        0x8 /usr/local/xenon/usr/lib/libxenon.a(ata.o)
 .text.ata_inserted
                0x0000000080002818       0x14 /usr/local/xenon/usr/lib/libxenon.a(ata.o)
 .text.ata_sectors
                0x000000008000282c        0xc /usr/local/xenon/usr/lib/libxenon.a(ata.o)
 .text.xenon_ata_dma_read
                0x0000000080002838      0x19c /usr/local/xenon/usr/lib/libxenon.a(ata.o)
 .text.xenon_ata_pio_read
                0x00000000800029d4       0xa8 /usr/local/xenon/usr/lib/libxenon.a(ata.o)
 .text.xenon_ata_setlba.constprop.0
                0x0000000080002a7c       0x38 /usr/local/xenon/usr/lib/libxenon.a(ata.o)
 .text.ata_shutdown
                0x0000000080002ab4        0x8 /usr/local/xenon/usr/lib/libxenon.a(ata.o)
 .text.ata_clearstatus
                0x0000000080002abc        0x8 /usr/local/xenon/usr/lib/libxenon.a(ata.o)
 .text.xenon_ata_pio_write
                0x0000000080002ac4       0x54 /usr/local/xenon/usr/lib/libxenon.a(ata.o)
 .text.xenon_atapi_packet
                0x0000000080002b18       0x7c /usr/local/xenon/usr/lib/libxenon.a(ata.o)
 .text.xenon_ata_identify
                0x0000000080002b94      0x278 /usr/local/xenon/usr/lib/libxenon.a(ata.o)
 .text.xenon_ata_setaddress.constprop.0
                0x0000000080002e0c      0x14c /usr/local/xenon/usr/lib/libxenon.a(ata.o)
 .text.ata_readsectors
                0x0000000080002f58       0x80 /usr/local/xenon/usr/lib/libxenon.a(ata.o)
 .text.ata_writesectors
                0x0000000080002fd8       0x90 /usr/local/xenon/usr/lib/libxenon.a(ata.o)
 .text.xenon_ata_init1
                0x0000000080003068      0x10c /usr/local/xenon/usr/lib/libxenon.a(ata.o)
                0x0000000080003068                xenon_ata_init1
 .text.xenon_ata_init
                0x0000000080003174       0x98 /usr/local/xenon/usr/lib/libxenon.a(ata.o)
                0x0000000080003174                xenon_ata_init
 .text.xenon_atapi_init
                0x000000008000320c       0x98 /usr/local/xenon/usr/lib/libxenon.a(ata.o)
                0x000000008000320c                xenon_atapi_init
 .text.vfs_console_write
                0x00000000800032a4       0x84 /usr/local/xenon/usr/lib/libxenon.a(newlib.o)
                0x00000000800032a4                vfs_console_write
 .text.__malloc_lock
                0x0000000080003328       0x18 /usr/local/xenon/usr/lib/libxenon.a(newlib.o)
                0x0000000080003328                __malloc_lock
 .text.__malloc_unlock
                0x0000000080003340       0x18 /usr/local/xenon/usr/lib/libxenon.a(newlib.o)
                0x0000000080003340                __malloc_unlock
 .text._exit    0x0000000080003358       0x2c /usr/local/xenon/usr/lib/libxenon.a(newlib.o)
                0x0000000080003358                _exit
 .text.sbrk     0x0000000080003384       0x34 /usr/local/xenon/usr/lib/libxenon.a(newlib.o)
                0x0000000080003384                sbrk
 .text.unlikely.abort
                0x00000000800033b8       0x2c /usr/local/xenon/usr/lib/libxenon.a(newlib.o)
                0x00000000800033b8                abort
 .text.gettimeofday
                0x00000000800033e4       0x3c /usr/local/xenon/usr/lib/libxenon.a(newlib.o)
                0x00000000800033e4                gettimeofday
 .text.isatty   0x0000000080003420        0x8 /usr/local/xenon/usr/lib/libxenon.a(newlib.o)
                0x0000000080003420                isatty
 .text.__release_handle
                0x0000000080003428       0x4c /usr/local/xenon/usr/lib/libxenon.a(newlib.o)
                0x0000000080003428                __release_handle
 .text.__alloc_handle
                0x0000000080003474       0x68 /usr/local/xenon/usr/lib/libxenon.a(newlib.o)
                0x0000000080003474                __alloc_handle
 .text.__get_handle
                0x00000000800034dc       0x28 /usr/local/xenon/usr/lib/libxenon.a(newlib.o)
                0x00000000800034dc                __get_handle
 .text.setDefaultDevice
                0x0000000080003504       0x18 /usr/local/xenon/usr/lib/libxenon.a(newlib.o)
                0x0000000080003504                setDefaultDevice
 .text.FindDevice
                0x000000008000351c       0xc0 /usr/local/xenon/usr/lib/libxenon.a(newlib.o)
                0x000000008000351c                FindDevice
 .text.RemoveDevice
                0x00000000800035dc       0x44 /usr/local/xenon/usr/lib/libxenon.a(newlib.o)
                0x00000000800035dc                RemoveDevice
 .text.AddDevice
                0x0000000080003620       0xa4 /usr/local/xenon/usr/lib/libxenon.a(newlib.o)
                0x0000000080003620                AddDevice
 .text.GetDeviceOpTab
                0x00000000800036c4       0x40 /usr/local/xenon/usr/lib/libxenon.a(newlib.o)
                0x00000000800036c4                GetDeviceOpTab
 .text.open     0x0000000080003704       0xd4 /usr/local/xenon/usr/lib/libxenon.a(newlib.o)
                0x0000000080003704                open
 .text.read     0x00000000800037d8       0xa4 /usr/local/xenon/usr/lib/libxenon.a(newlib.o)
                0x00000000800037d8                read
 .text.write    0x000000008000387c       0xac /usr/local/xenon/usr/lib/libxenon.a(newlib.o)
                0x000000008000387c                write
 .text.fstat    0x0000000080003928       0xa0 /usr/local/xenon/usr/lib/libxenon.a(newlib.o)
                0x0000000080003928                fstat
 .text.lseek    0x00000000800039c8       0xa4 /usr/local/xenon/usr/lib/libxenon.a(newlib.o)
                0x00000000800039c8                lseek
 .text.close    0x0000000080003a6c       0x88 /usr/local/xenon/usr/lib/libxenon.a(newlib.o)
                0x0000000080003a6c                close
 .text._concatenate_path
                0x0000000080003af4      0x1a4 /usr/local/xenon/usr/lib/libxenon.a(newlib.o)
                0x0000000080003af4                _concatenate_path
 .text.chdir    0x0000000080003c98      0x138 /usr/local/xenon/usr/lib/libxenon.a(newlib.o)
                0x0000000080003c98                chdir
 .text.bdev_enum
                0x0000000080003dd0       0x7c /usr/local/xenon/usr/lib/libxenon.a(newlib.o)
                0x0000000080003dd0                bdev_enum
 .text.xenon_sbrk
                0x0000000080003e4c       0x2c /usr/local/xenon/usr/lib/libxenon.a(xenon_syscalls.o)
 .text.xenon_gettimeofday
                0x0000000080003e78       0x78 /usr/local/xenon/usr/lib/libxenon.a(xenon_syscalls.o)
 .text.xenon_malloc_unlock
                0x0000000080003ef0       0xc4 /usr/local/xenon/usr/lib/libxenon.a(xenon_syscalls.o)
 .text.xenon_malloc_lock
                0x0000000080003fb4       0xf0 /usr/local/xenon/usr/lib/libxenon.a(xenon_syscalls.o)
 .text.shutdown_drivers
                0x00000000800040a4       0x30 /usr/local/xenon/usr/lib/libxenon.a(xenon_syscalls.o)
                0x00000000800040a4                shutdown_drivers
 .text.try_return_to_xell
                0x00000000800040d4       0x64 /usr/local/xenon/usr/lib/libxenon.a(xenon_syscalls.o)
                0x00000000800040d4                try_return_to_xell
 .text.xenon_exit
                0x0000000080004138      0x188 /usr/local/xenon/usr/lib/libxenon.a(xenon_syscalls.o)
 .text          0x00000000800042c0       0x94 /usr/local/xenon/usr/lib/libxenon.a(atomic.o)
                0x00000000800042c0                atomic_inc
                0x00000000800042d4                atomic_dec
                0x00000000800042e8                atomic_clearset
                0x0000000080004300                lock
                0x000000008000433c                unlock
 .text          0x0000000080004354       0xa8 /usr/local/xenon/usr/lib/libxenon.a(cache.o)
                0x0000000080004354                memdcbt
                0x000000008000437c                memdcbst
                0x00000000800043a4                memdcbf
                0x00000000800043cc                memicbi
 .text.flush_console
                0x00000000800043fc       0x48 /usr/local/xenon/usr/lib/libxenon.a(c_except.o)
 .text.crashdump
                0x0000000080004444      0x298 /usr/local/xenon/usr/lib/libxenon.a(c_except.o)
                0x0000000080004444                crashdump
 .text.tdelay   0x00000000800046dc       0x50 /usr/local/xenon/usr/lib/libxenon.a(time.o)
 .text.udelay   0x000000008000472c       0x24 /usr/local/xenon/usr/lib/libxenon.a(time.o)
                0x000000008000472c                udelay
 .text.mdelay   0x0000000080004750       0x18 /usr/local/xenon/usr/lib/libxenon.a(time.o)
                0x0000000080004750                mdelay
 .text.delay    0x0000000080004768       0x18 /usr/local/xenon/usr/lib/libxenon.a(time.o)
                0x0000000080004768                delay
 .text.usb_init_one_ohci
                0x0000000080004780       0xcc /usr/local/xenon/usr/lib/libxenon.a(usbmain.o)
 .text.usb_shutdown
                0x000000008000484c       0xb4 /usr/local/xenon/usr/lib/libxenon.a(usbmain.o)
                0x000000008000484c                usb_shutdown
 .text.usb_init
                0x0000000080004900      0x108 /usr/local/xenon/usr/lib/libxenon.a(usbmain.o)
                0x0000000080004900                usb_init
 .text.usb_do_poll
                0x0000000080004a08       0xa8 /usr/local/xenon/usr/lib/libxenon.a(usbmain.o)
                0x0000000080004a08                usb_do_poll
 .text.USBStorage_True
                0x0000000080004ab0        0x8 /usr/local/xenon/usr/lib/libxenon.a(tinyehci.o)
 .text.USBStorage_Inserted_0
                0x0000000080004ab8        0xc /usr/local/xenon/usr/lib/libxenon.a(tinyehci.o)
                0x0000000080004ab8                USBStorage_Inserted_0
 .text.USBStorage_Inserted_1
                0x0000000080004ac4        0xc /usr/local/xenon/usr/lib/libxenon.a(tinyehci.o)
                0x0000000080004ac4                USBStorage_Inserted_1
 .text.USBStorage_Inserted_2
                0x0000000080004ad0        0xc /usr/local/xenon/usr/lib/libxenon.a(tinyehci.o)
                0x0000000080004ad0                USBStorage_Inserted_2
 .text.qtd_fill
                0x0000000080004adc       0xb4 /usr/local/xenon/usr/lib/libxenon.a(tinyehci.o)
 .text.ehci_qtd_alloc
                0x0000000080004b90       0x7c /usr/local/xenon/usr/lib/libxenon.a(tinyehci.o)
 .text.handshake.isra.0
                0x0000000080004c0c      0x154 /usr/local/xenon/usr/lib/libxenon.a(tinyehci.o)
 .text.ehci_mem_init
                0x0000000080004d60       0xf0 /usr/local/xenon/usr/lib/libxenon.a(tinyehci.o)
                0x0000000080004d60                ehci_mem_init
 .text.qh_urb_transaction
                0x0000000080004e50      0x1b4 /usr/local/xenon/usr/lib/libxenon.a(tinyehci.o)
                0x0000000080004e50                qh_urb_transaction
 .text.ehci_do_urb
                0x0000000080005004      0x394 /usr/local/xenon/usr/lib/libxenon.a(tinyehci.o)
                0x0000000080005004                ehci_do_urb
 .text.ehci_control_message
                0x0000000080005398       0x84 /usr/local/xenon/usr/lib/libxenon.a(tinyehci.o)
                0x0000000080005398                ehci_control_message
 .text.ehci_bulk_message
                0x000000008000541c       0x48 /usr/local/xenon/usr/lib/libxenon.a(tinyehci.o)
                0x000000008000541c                ehci_bulk_message
 .text.__send_cbw
                0x0000000080005464      0x104 /usr/local/xenon/usr/lib/libxenon.a(tinyehci.o)
 .text.ehci_reset_port_old
                0x0000000080005568      0x194 /usr/local/xenon/usr/lib/libxenon.a(tinyehci.o)
                0x0000000080005568                ehci_reset_port_old
 .text.ehci_adquire_port
                0x00000000800056fc       0x90 /usr/local/xenon/usr/lib/libxenon.a(tinyehci.o)
                0x00000000800056fc                ehci_adquire_port
 .text.ehci_reset_usb_port
                0x000000008000578c      0x15c /usr/local/xenon/usr/lib/libxenon.a(tinyehci.o)
                0x000000008000578c                ehci_reset_usb_port
 .text.ehci_reset_port2
                0x00000000800058e8       0x64 /usr/local/xenon/usr/lib/libxenon.a(tinyehci.o)
                0x00000000800058e8                ehci_reset_port2
 .text.USB_FreeDescriptors
                0x000000008000594c       0xc4 /usr/local/xenon/usr/lib/libxenon.a(tinyehci.o)
                0x000000008000594c                USB_FreeDescriptors
 .text.USB_GetDescriptors
                0x0000000080005a10      0x358 /usr/local/xenon/usr/lib/libxenon.a(tinyehci.o)
                0x0000000080005a10                USB_GetDescriptors
 .text.USB_GetConfiguration
                0x0000000080005d68       0x80 /usr/local/xenon/usr/lib/libxenon.a(tinyehci.o)
                0x0000000080005d68                USB_GetConfiguration
 .text.USB_SetConfiguration
                0x0000000080005de8       0x1c /usr/local/xenon/usr/lib/libxenon.a(tinyehci.o)
                0x0000000080005de8                USB_SetConfiguration
 .text.USB_SetAlternativeInterface
                0x0000000080005e04       0x28 /usr/local/xenon/usr/lib/libxenon.a(tinyehci.o)
                0x0000000080005e04                USB_SetAlternativeInterface
 .text.USB_ClearHalt
                0x0000000080005e2c       0x1c /usr/local/xenon/usr/lib/libxenon.a(tinyehci.o)
                0x0000000080005e2c                USB_ClearHalt
 .text.ehci_init_port
                0x0000000080005e48      0x148 /usr/local/xenon/usr/lib/libxenon.a(tinyehci.o)
                0x0000000080005e48                ehci_init_port
 .text.ehci_reset_port
                0x0000000080005f90       0x50 /usr/local/xenon/usr/lib/libxenon.a(tinyehci.o)
                0x0000000080005f90                ehci_reset_port
 .text.ehci_reset_device
                0x0000000080005fe0        0x8 /usr/local/xenon/usr/lib/libxenon.a(tinyehci.o)
                0x0000000080005fe0                ehci_reset_device
 .text.ehci_discover
                0x0000000080005fe8       0x54 /usr/local/xenon/usr/lib/libxenon.a(tinyehci.o)
                0x0000000080005fe8                ehci_discover
 .text.EHCI_do_one
                0x000000008000603c      0x148 /usr/local/xenon/usr/lib/libxenon.a(tinyehci.o)
 .text.find_ehci_data
                0x0000000080006184       0x3c /usr/local/xenon/usr/lib/libxenon.a(tinyehci.o)
                0x0000000080006184                find_ehci_data
 .text.USBStorage_Close
                0x00000000800061c0       0x40 /usr/local/xenon/usr/lib/libxenon.a(tinyehci.o)
                0x00000000800061c0                USBStorage_Close
 .text.USBStorage_ReadCapacity
                0x0000000080006200       0xbc /usr/local/xenon/usr/lib/libxenon.a(tinyehci.o)
                0x0000000080006200                USBStorage_ReadCapacity
 .text.USBStorage_MountLUN
                0x00000000800062bc      0x1bc /usr/local/xenon/usr/lib/libxenon.a(tinyehci.o)
                0x00000000800062bc                USBStorage_MountLUN
 .text.__usbstorage_reset.isra.0
                0x0000000080006478      0x19c /usr/local/xenon/usr/lib/libxenon.a(tinyehci.o)
 .text.USBStorage_Open
                0x0000000080006614      0x308 /usr/local/xenon/usr/lib/libxenon.a(tinyehci.o)
                0x0000000080006614                USBStorage_Open
 .text.__cycle.constprop.0
                0x000000008000691c      0x2a8 /usr/local/xenon/usr/lib/libxenon.a(tinyehci.o)
 .text.USBStorage_Inquiry
                0x0000000080006bc4       0x94 /usr/local/xenon/usr/lib/libxenon.a(tinyehci.o)
                0x0000000080006bc4                USBStorage_Inquiry
 .text.USBStorage_Read
                0x0000000080006c58      0x128 /usr/local/xenon/usr/lib/libxenon.a(tinyehci.o)
                0x0000000080006c58                USBStorage_Read
 .text.USBStorage_Write
                0x0000000080006d80      0x128 /usr/local/xenon/usr/lib/libxenon.a(tinyehci.o)
                0x0000000080006d80                USBStorage_Write
 .text.USBStorage_Try_Device
                0x0000000080006ea8      0x14c /usr/local/xenon/usr/lib/libxenon.a(tinyehci.o)
                0x0000000080006ea8                USBStorage_Try_Device
 .text.USBStorage_Init
                0x0000000080006ff4      0x208 /usr/local/xenon/usr/lib/libxenon.a(tinyehci.o)
                0x0000000080006ff4                USBStorage_Init
 .text.USBStorage_Get_Capacity
                0x00000000800071fc       0x6c /usr/local/xenon/usr/lib/libxenon.a(tinyehci.o)
                0x00000000800071fc                USBStorage_Get_Capacity
 .text.USBStorage_devsectors_0
                0x0000000080007268       0x28 /usr/local/xenon/usr/lib/libxenon.a(tinyehci.o)
                0x0000000080007268                USBStorage_devsectors_0
 .text.USBStorage_devsectors_1
                0x0000000080007290       0x28 /usr/local/xenon/usr/lib/libxenon.a(tinyehci.o)
                0x0000000080007290                USBStorage_devsectors_1
 .text.USBStorage_devsectors_2
                0x00000000800072b8       0x28 /usr/local/xenon/usr/lib/libxenon.a(tinyehci.o)
                0x00000000800072b8                USBStorage_devsectors_2
 .text.unplug_procedure
                0x00000000800072e0       0xd4 /usr/local/xenon/usr/lib/libxenon.a(tinyehci.o)
                0x00000000800072e0                unplug_procedure
 .text.USBStorage_Read_Sectors
                0x00000000800073b4      0x110 /usr/local/xenon/usr/lib/libxenon.a(tinyehci.o)
                0x00000000800073b4                USBStorage_Read_Sectors
 .text.USBStorage_Read_Sectors_0
                0x00000000800074c4       0x14 /usr/local/xenon/usr/lib/libxenon.a(tinyehci.o)
                0x00000000800074c4                USBStorage_Read_Sectors_0
 .text.USBStorage_Read_Sectors_1
                0x00000000800074d8       0x14 /usr/local/xenon/usr/lib/libxenon.a(tinyehci.o)
                0x00000000800074d8                USBStorage_Read_Sectors_1
 .text.USBStorage_Read_Sectors_2
                0x00000000800074ec       0x14 /usr/local/xenon/usr/lib/libxenon.a(tinyehci.o)
                0x00000000800074ec                USBStorage_Read_Sectors_2
 .text.USBStorage_Write_Sectors
                0x0000000080007500      0x110 /usr/local/xenon/usr/lib/libxenon.a(tinyehci.o)
                0x0000000080007500                USBStorage_Write_Sectors
 .text.USBStorage_Write_Sectors_0
                0x0000000080007610       0x14 /usr/local/xenon/usr/lib/libxenon.a(tinyehci.o)
                0x0000000080007610                USBStorage_Write_Sectors_0
 .text.USBStorage_Write_Sectors_1
                0x0000000080007624       0x14 /usr/local/xenon/usr/lib/libxenon.a(tinyehci.o)
                0x0000000080007624                USBStorage_Write_Sectors_1
 .text.USBStorage_Write_Sectors_2
                0x0000000080007638       0x14 /usr/local/xenon/usr/lib/libxenon.a(tinyehci.o)
                0x0000000080007638                USBStorage_Write_Sectors_2
 .text.EHCI_Init
                0x000000008000764c       0x50 /usr/local/xenon/usr/lib/libxenon.a(tinyehci.o)
                0x000000008000764c                EHCI_Init
 .text.data_breakpoint
                0x000000008000769c       0x38 /usr/local/xenon/usr/lib/libxenon.a(debug.o)
                0x000000008000769c                data_breakpoint
 .text.uprintf  0x00000000800076d4       0x94 /usr/local/xenon/usr/lib/libxenon.a(xenon_smc.o)
                0x00000000800076d4                uprintf
 .text.xenon_smc_send_message
                0x0000000080007768       0x98 /usr/local/xenon/usr/lib/libxenon.a(xenon_smc.o)
                0x0000000080007768                xenon_smc_send_message
 .text.xenon_smc_receive_message
                0x0000000080007800       0x84 /usr/local/xenon/usr/lib/libxenon.a(xenon_smc.o)
                0x0000000080007800                xenon_smc_receive_message
 .text.xenon_smc_handle_bulk
                0x0000000080007884       0x6c /usr/local/xenon/usr/lib/libxenon.a(xenon_smc.o)
                0x0000000080007884                xenon_smc_handle_bulk
 .text.xenon_smc_receive_response
                0x00000000800078f0       0x44 /usr/local/xenon/usr/lib/libxenon.a(xenon_smc.o)
                0x00000000800078f0                xenon_smc_receive_response
 .text.xenon_smc_ana_write
                0x0000000080007934       0x84 /usr/local/xenon/usr/lib/libxenon.a(xenon_smc.o)
                0x0000000080007934                xenon_smc_ana_write
 .text.xenon_smc_ana_read
                0x00000000800079b8       0x8c /usr/local/xenon/usr/lib/libxenon.a(xenon_smc.o)
                0x00000000800079b8                xenon_smc_ana_read
 .text.xenon_smc_i2c_ddc_lock
                0x0000000080007a44       0x78 /usr/local/xenon/usr/lib/libxenon.a(xenon_smc.o)
                0x0000000080007a44                xenon_smc_i2c_ddc_lock
 .text.xenon_smc_i2c_write
                0x0000000080007abc       0xa8 /usr/local/xenon/usr/lib/libxenon.a(xenon_smc.o)
                0x0000000080007abc                xenon_smc_i2c_write
 .text.xenon_smc_i2c_read
                0x0000000080007b64       0xc0 /usr/local/xenon/usr/lib/libxenon.a(xenon_smc.o)
                0x0000000080007b64                xenon_smc_i2c_read
 .text.xenon_smc_power_shutdown
                0x0000000080007c24       0x38 /usr/local/xenon/usr/lib/libxenon.a(xenon_smc.o)
                0x0000000080007c24                xenon_smc_power_shutdown
 .text.xenon_smc_power_reboot
                0x0000000080007c5c       0x3c /usr/local/xenon/usr/lib/libxenon.a(xenon_smc.o)
                0x0000000080007c5c                xenon_smc_power_reboot
 .text.xenon_smc_read_avpack
                0x0000000080007c98       0x44 /usr/local/xenon/usr/lib/libxenon.a(xenon_smc.o)
                0x0000000080007c98                xenon_smc_read_avpack
 .text.xenon_smc_set_fan_algorithm
                0x0000000080007cdc       0x3c /usr/local/xenon/usr/lib/libxenon.a(xenon_smc.o)
                0x0000000080007cdc                xenon_smc_set_fan_algorithm
 .text.wakeup_cpus
                0x0000000080007d18       0xb0 /usr/local/xenon/usr/lib/libxenon.a(xenon_power.o)
                0x0000000080007d18                wakeup_cpus
 .text.prepare_sleep
                0x0000000080007dc8       0x74 /usr/local/xenon/usr/lib/libxenon.a(xenon_power.o)
                0x0000000080007dc8                prepare_sleep
 .text.xenon_thread_sleep
                0x0000000080007e3c       0x58 /usr/local/xenon/usr/lib/libxenon.a(xenon_power.o)
                0x0000000080007e3c                xenon_thread_sleep
 .text.xenon_set_speed
                0x0000000080007e94      0x300 /usr/local/xenon/usr/lib/libxenon.a(xenon_power.o)
                0x0000000080007e94                xenon_set_speed
 .text.xenon_run_thread_task
                0x0000000080008194       0x38 /usr/local/xenon/usr/lib/libxenon.a(xenon_power.o)
                0x0000000080008194                xenon_run_thread_task
 .text.xenon_is_thread_task_running
                0x00000000800081cc       0x1c /usr/local/xenon/usr/lib/libxenon.a(xenon_power.o)
                0x00000000800081cc                xenon_is_thread_task_running
 .text.xenon_thread_startup
                0x00000000800081e8       0x48 /usr/local/xenon/usr/lib/libxenon.a(xenon_power.o)
                0x00000000800081e8                xenon_thread_startup
 .text.xenon_set_single_thread_mode
                0x0000000080008230       0x94 /usr/local/xenon/usr/lib/libxenon.a(xenon_power.o)
                0x0000000080008230                xenon_set_single_thread_mode
 .text.xenon_make_it_faster
                0x00000000800082c4       0xd8 /usr/local/xenon/usr/lib/libxenon.a(xenon_power.o)
                0x00000000800082c4                xenon_make_it_faster
 .text.xenon_secotp_read_line
                0x000000008000839c       0x20 /usr/local/xenon/usr/lib/libxenon.a(xenon_secotp.o)
                0x000000008000839c                xenon_secotp_read_line
 .text.putch    0x00000000800083bc       0x50 /usr/local/xenon/usr/lib/libxenon.a(xenon_uart.o)
                0x00000000800083bc                putch
 .text.kbhit    0x000000008000840c       0x1c /usr/local/xenon/usr/lib/libxenon.a(xenon_uart.o)
                0x000000008000840c                kbhit
 .text.getch    0x0000000080008428       0x38 /usr/local/xenon/usr/lib/libxenon.a(xenon_uart.o)
                0x0000000080008428                getch
 .text.uart_puts
                0x0000000080008460       0x30 /usr/local/xenon/usr/lib/libxenon.a(xenon_uart.o)
                0x0000000080008460                uart_puts
 .text.sfcx_readreg
                0x0000000080008490       0x10 /usr/local/xenon/usr/lib/libxenon.a(xenon_sfcx.o)
                0x0000000080008490                sfcx_readreg
 .text.sfcx_read_page
                0x00000000800084a0      0x144 /usr/local/xenon/usr/lib/libxenon.a(xenon_sfcx.o)
                0x00000000800084a0                sfcx_read_page
 .text.sfcx_read_block
                0x00000000800085e4       0x80 /usr/local/xenon/usr/lib/libxenon.a(xenon_sfcx.o)
                0x00000000800085e4                sfcx_read_block
 .text.sfcx_is_pagevalid
                0x0000000080008664       0x54 /usr/local/xenon/usr/lib/libxenon.a(xenon_sfcx.o)
                0x0000000080008664                sfcx_is_pagevalid
 .text.rawflash_readImage
                0x00000000800086b8      0x1c8 /usr/local/xenon/usr/lib/libxenon.a(xenon_sfcx.o)
                0x00000000800086b8                rawflash_readImage
 .text.sfcx_init
                0x0000000080008880      0x2ec /usr/local/xenon/usr/lib/libxenon.a(xenon_sfcx.o)
                0x0000000080008880                sfcx_init
 .text.xenon_config_init
                0x0000000080008b6c       0xa4 /usr/local/xenon/usr/lib/libxenon.a(xenon_config.o)
                0x0000000080008b6c                xenon_config_init
 .text.xenon_config_get_avregion
                0x0000000080008c10       0x90 /usr/local/xenon/usr/lib/libxenon.a(xenon_config.o)
                0x0000000080008c10                xenon_config_get_avregion
 .text.xenon_config_get_vid_delta
                0x0000000080008ca0       0x40 /usr/local/xenon/usr/lib/libxenon.a(xenon_config.o)
                0x0000000080008ca0                xenon_config_get_vid_delta
 .text.xenos_write32
                0x0000000080008ce0        0x8 /usr/local/xenon/usr/lib/libxenon.a(xenos.o)
                0x0000000080008ce0                xenos_write32
 .text.xenos_read32
                0x0000000080008ce8        0x8 /usr/local/xenon/usr/lib/libxenon.a(xenos.o)
                0x0000000080008ce8                xenos_read32
 .text.xenos_ana_write
                0x0000000080008cf0       0xc8 /usr/local/xenon/usr/lib/libxenon.a(xenos.o)
 .text.xenos_init_ana_new
                0x0000000080008db8      0x560 /usr/local/xenon/usr/lib/libxenon.a(xenos.o)
                0x0000000080008db8                xenos_init_ana_new
 .text.xenos_init_phase0
                0x0000000080009318       0xa8 /usr/local/xenon/usr/lib/libxenon.a(xenos.o)
                0x0000000080009318                xenos_init_phase0
 .text.xenos_init_phase1
                0x00000000800093c0      0x420 /usr/local/xenon/usr/lib/libxenon.a(xenos.o)
                0x00000000800093c0                xenos_init_phase1
 .text.xenos_ana_preinit
                0x00000000800097e0       0xd8 /usr/local/xenon/usr/lib/libxenon.a(xenos.o)
                0x00000000800097e0                xenos_ana_preinit
 .text.xenos_set_mode_f1
                0x00000000800098b8      0x194 /usr/local/xenon/usr/lib/libxenon.a(xenos.o)
                0x00000000800098b8                xenos_set_mode_f1
 .text.xenos_set_mode_f2
                0x0000000080009a4c      0x3e0 /usr/local/xenon/usr/lib/libxenon.a(xenos.o)
                0x0000000080009a4c                xenos_set_mode_f2
 .text.xenos_set_mode
                0x0000000080009e2c      0x3f4 /usr/local/xenon/usr/lib/libxenon.a(xenos.o)
                0x0000000080009e2c                xenos_set_mode
 .text.xenos_hdmi_vga_mode_fix
                0x000000008000a220       0x40 /usr/local/xenon/usr/lib/libxenon.a(xenos.o)
                0x000000008000a220                xenos_hdmi_vga_mode_fix
 .text.xenos_autoset_mode
                0x000000008000a260      0x178 /usr/local/xenon/usr/lib/libxenon.a(xenos.o)
                0x000000008000a260                xenos_autoset_mode
 .text.xenos_init
                0x000000008000a3d8      0x154 /usr/local/xenon/usr/lib/libxenon.a(xenos.o)
                0x000000008000a3d8                xenos_init
 .text.xenos_is_overscan
                0x000000008000a52c       0x38 /usr/local/xenon/usr/lib/libxenon.a(xenos.o)
                0x000000008000a52c                xenos_is_overscan
 .text.xenos_is_initialized
                0x000000008000a564       0x14 /usr/local/xenon/usr/lib/libxenon.a(xenos.o)
                0x000000008000a564                xenos_is_initialized
 .text.xenos_do_probe_ddc_edid
                0x000000008000a578      0x194 /usr/local/xenon/usr/lib/libxenon.a(xenos_edid.o)
                0x000000008000a578                xenos_do_probe_ddc_edid
 .text.xenos_ddc_read_edid
                0x000000008000a70c      0x138 /usr/local/xenon/usr/lib/libxenon.a(xenos_edid.o)
 .text.xenos_get_edid
                0x000000008000a844       0xa4 /usr/local/xenon/usr/lib/libxenon.a(xenos_edid.o)
                0x000000008000a844                xenos_get_edid
 .text.xenos_detect_hdmi_monitor
                0x000000008000a8e8       0xd8 /usr/local/xenon/usr/lib/libxenon.a(xenos_edid.o)
                0x000000008000a8e8                xenos_detect_hdmi_monitor
 .text.enet_quiesce
                0x000000008000a9c0       0x38 /usr/local/xenon/usr/lib/libxenon.a(enet.o)
                0x000000008000a9c0                enet_quiesce
 .text.xenon_get_DVE
                0x000000008000a9f8       0x34 /usr/local/xenon/usr/lib/libxenon.a(xb360.o)
                0x000000008000a9f8                xenon_get_DVE
 .text.xenon_get_PCIBridgeRevisionID
                0x000000008000aa2c       0x2c /usr/local/xenon/usr/lib/libxenon.a(xb360.o)
                0x000000008000aa2c                xenon_get_PCIBridgeRevisionID
 .text.xenon_get_XenosID
                0x000000008000aa58       0x28 /usr/local/xenon/usr/lib/libxenon.a(xb360.o)
                0x000000008000aa58                xenon_get_XenosID
 .text.xenon_get_console_type
                0x000000008000aa80       0xc0 /usr/local/xenon/usr/lib/libxenon.a(xb360.o)
                0x000000008000aa80                xenon_get_console_type
 .text.xenon_logical_nand_data_ok
                0x000000008000ab40       0x18 /usr/local/xenon/usr/lib/libxenon.a(xb360.o)
                0x000000008000ab40                xenon_logical_nand_data_ok
 .text.xenon_get_logical_nand_data
                0x000000008000ab58       0x50 /usr/local/xenon/usr/lib/libxenon.a(xb360.o)
                0x000000008000ab58                xenon_get_logical_nand_data
 .text.console_clrscr
                0x000000008000aba8       0x7c /usr/local/xenon/usr/lib/libxenon.a(console.o)
                0x000000008000aba8                console_clrscr
 .text.console_newline
                0x000000008000ac24       0xd8 /usr/local/xenon/usr/lib/libxenon.a(console.o)
                0x000000008000ac24                console_newline
 .text.console_putch
                0x000000008000acfc      0x184 /usr/local/xenon/usr/lib/libxenon.a(console.o)
                0x000000008000acfc                console_putch
 .text.console_stdout_hook
                0x000000008000ae80       0x3c /usr/local/xenon/usr/lib/libxenon.a(console.o)
 .text.console_init
                0x000000008000aebc      0x148 /usr/local/xenon/usr/lib/libxenon.a(console.o)
                0x000000008000aebc                console_init
 .text.console_set_colors
                0x000000008000b004       0x14 /usr/local/xenon/usr/lib/libxenon.a(console.o)
                0x000000008000b004                console_set_colors
 .text.kfree    0x000000008000b018       0xb4 /usr/local/xenon/usr/lib/libxenon.a(lib_malloc.o)
                0x000000008000b018                kfree
 .text.lib_outofmemory
                0x000000008000b0cc        0xc /usr/local/xenon/usr/lib/libxenon.a(lib_malloc.o)
                0x000000008000b0cc                lib_outofmemory
 .text.kmalloc  0x000000008000b0d8      0x130 /usr/local/xenon/usr/lib/libxenon.a(lib_malloc.o)
                0x000000008000b0d8                kmalloc
 .text.kmem_init
                0x000000008000b208       0x70 /usr/local/xenon/usr/lib/libxenon.a(lib_malloc.o)
                0x000000008000b208                kmem_init
 .text.read32   0x000000008000b278        0x8 /usr/local/xenon/usr/lib/libxenon.a(io.o)
                0x000000008000b278                read32
 .text.read32n  0x000000008000b280        0x8 /usr/local/xenon/usr/lib/libxenon.a(io.o)
                0x000000008000b280                read32n
 .text.write32  0x000000008000b288        0x8 /usr/local/xenon/usr/lib/libxenon.a(io.o)
                0x000000008000b288                write32
 .text.write32n
                0x000000008000b290        0x8 /usr/local/xenon/usr/lib/libxenon.a(io.o)
                0x000000008000b290                write32n
 .text._ohci_allocept
                0x000000008000b298       0x60 /usr/local/xenon/usr/lib/libxenon.a(ohci.o)
 .text._ohci_allocxfer
                0x000000008000b2f8       0x54 /usr/local/xenon/usr/lib/libxenon.a(ohci.o)
 .text.ohci_delete
                0x000000008000b34c        0x4 /usr/local/xenon/usr/lib/libxenon.a(ohci.o)
 .text.ohci_ept_setaddr
                0x000000008000b350       0x38 /usr/local/xenon/usr/lib/libxenon.a(ohci.o)
 .text.ohci_ept_setmps
                0x000000008000b388       0x40 /usr/local/xenon/usr/lib/libxenon.a(ohci.o)
 .text._ohci_queueept
                0x000000008000b3c8       0x5c /usr/local/xenon/usr/lib/libxenon.a(ohci.o)
 .text.ohci_ept_create
                0x000000008000b424      0x130 /usr/local/xenon/usr/lib/libxenon.a(ohci.o)
 .text.ohci_ept_cleartoggle
                0x000000008000b554       0x44 /usr/local/xenon/usr/lib/libxenon.a(ohci.o)
 .text.ohci_stop
                0x000000008000b598       0x14 /usr/local/xenon/usr/lib/libxenon.a(ohci.o)
 .text.ohci_ept_delete
                0x000000008000b5ac      0x1d0 /usr/local/xenon/usr/lib/libxenon.a(ohci.o)
 .text.ohci_start
                0x000000008000b77c      0x19c /usr/local/xenon/usr/lib/libxenon.a(ohci.o)
 .text.ohci_roothub_strdscr
                0x000000008000b918       0x6c /usr/local/xenon/usr/lib/libxenon.a(ohci.o)
 .text.ohci_intr
                0x000000008000b984      0x1f0 /usr/local/xenon/usr/lib/libxenon.a(ohci.o)
 .text._ohci_dma_alloc
                0x000000008000bb74       0x50 /usr/local/xenon/usr/lib/libxenon.a(ohci.o)
 .text.ohci_xfer
                0x000000008000bbc4      0x76c /usr/local/xenon/usr/lib/libxenon.a(ohci.o)
 .text.ohci_create
                0x000000008000c330      0x2a0 /usr/local/xenon/usr/lib/libxenon.a(ohci.o)
 .text.usb_create_pipe
                0x000000008000c5d0       0xcc /usr/local/xenon/usr/lib/libxenon.a(usbd.o)
                0x000000008000c5d0                usb_create_pipe
 .text.usb_open_pipe
                0x000000008000c69c       0x78 /usr/local/xenon/usr/lib/libxenon.a(usbd.o)
                0x000000008000c69c                usb_open_pipe
 .text.usb_destroy_all_pipes
                0x000000008000c714       0x70 /usr/local/xenon/usr/lib/libxenon.a(usbd.o)
                0x000000008000c714                usb_destroy_all_pipes
 .text.usb_destroy_device
                0x000000008000c784       0x50 /usr/local/xenon/usr/lib/libxenon.a(usbd.o)
                0x000000008000c784                usb_destroy_device
 .text.usb_create_device
                0x000000008000c7d4       0x78 /usr/local/xenon/usr/lib/libxenon.a(usbd.o)
                0x000000008000c7d4                usb_create_device
 .text.usb_make_request
                0x000000008000c84c       0x8c /usr/local/xenon/usr/lib/libxenon.a(usbd.o)
                0x000000008000c84c                usb_make_request
 .text.usb_poll
                0x000000008000c8d8       0x10 /usr/local/xenon/usr/lib/libxenon.a(usbd.o)
                0x000000008000c8d8                usb_poll
 .text.usb_daemon
                0x000000008000c8e8       0x18 /usr/local/xenon/usr/lib/libxenon.a(usbd.o)
                0x000000008000c8e8                usb_daemon
 .text.usb_free_request
                0x000000008000c900       0x28 /usr/local/xenon/usr/lib/libxenon.a(usbd.o)
                0x000000008000c900                usb_free_request
 .text.usb_delay_ms
                0x000000008000c928        0x8 /usr/local/xenon/usr/lib/libxenon.a(usbd.o)
                0x000000008000c928                usb_delay_ms
 .text.usb_queue_request
                0x000000008000c930       0x34 /usr/local/xenon/usr/lib/libxenon.a(usbd.o)
                0x000000008000c930                usb_queue_request
 .text.usb_wait_request
                0x000000008000c964       0x3c /usr/local/xenon/usr/lib/libxenon.a(usbd.o)
                0x000000008000c964                usb_wait_request
 .text.usb_sync_request
                0x000000008000c9a0       0x30 /usr/local/xenon/usr/lib/libxenon.a(usbd.o)
                0x000000008000c9a0                usb_sync_request
 .text.usb_new_address
                0x000000008000c9d0       0x34 /usr/local/xenon/usr/lib/libxenon.a(usbd.o)
                0x000000008000c9d0                usb_new_address
 .text.usb_set_ep0mps
                0x000000008000ca04       0x58 /usr/local/xenon/usr/lib/libxenon.a(usbd.o)
                0x000000008000ca04                usb_set_ep0mps
 .text.usb_clear_stall
                0x000000008000ca5c       0xf0 /usr/local/xenon/usr/lib/libxenon.a(usbd.o)
                0x000000008000ca5c                usb_clear_stall
 .text.usb_std_request
                0x000000008000cb4c      0x234 /usr/local/xenon/usr/lib/libxenon.a(usbd.o)
                0x000000008000cb4c                usb_std_request
 .text.usb_simple_request
                0x000000008000cd80       0x18 /usr/local/xenon/usr/lib/libxenon.a(usbd.o)
                0x000000008000cd80                usb_simple_request
 .text.usb_set_configuration
                0x000000008000cd98       0x14 /usr/local/xenon/usr/lib/libxenon.a(usbd.o)
                0x000000008000cd98                usb_set_configuration
 .text.usb_set_address
                0x000000008000cdac       0x98 /usr/local/xenon/usr/lib/libxenon.a(usbd.o)
                0x000000008000cdac                usb_set_address
 .text.usb_get_descriptor
                0x000000008000ce44       0x20 /usr/local/xenon/usr/lib/libxenon.a(usbd.o)
                0x000000008000ce44                usb_get_descriptor
 .text.usb_get_string
                0x000000008000ce64       0xfc /usr/local/xenon/usr/lib/libxenon.a(usbd.o)
                0x000000008000ce64                usb_get_string
 .text.usb_get_device_descriptor
                0x000000008000cf60       0x90 /usr/local/xenon/usr/lib/libxenon.a(usbd.o)
                0x000000008000cf60                usb_get_device_descriptor
 .text.usb_get_config_descriptor
                0x000000008000cff0       0x8c /usr/local/xenon/usr/lib/libxenon.a(usbd.o)
                0x000000008000cff0                usb_get_config_descriptor
 .text.usb_get_device_status
                0x000000008000d07c       0x1c /usr/local/xenon/usr/lib/libxenon.a(usbd.o)
                0x000000008000d07c                usb_get_device_status
 .text.usb_complete_request
                0x000000008000d098       0x20 /usr/local/xenon/usr/lib/libxenon.a(usbd.o)
                0x000000008000d098                usb_complete_request
 .text.usb_initroot
                0x000000008000d0b8      0x148 /usr/local/xenon/usr/lib/libxenon.a(usbd.o)
                0x000000008000d0b8                usb_initroot
 .text.usb_find_cfg_descr
                0x000000008000d200       0x4c /usr/local/xenon/usr/lib/libxenon.a(usbd.o)
                0x000000008000d200                usb_find_cfg_descr
 .text.usb_find_driver
                0x000000008000d24c      0x148 /usr/local/xenon/usr/lib/libxenon.a(usbdevs.o)
                0x000000008000d24c                usb_find_driver
 .text.usbhid_detach
                0x000000008000d394        0x8 /usr/local/xenon/usr/lib/libxenon.a(usbhid.o)
 .text.usbhid_attach
                0x000000008000d39c      0x160 /usr/local/xenon/usr/lib/libxenon.a(usbhid.o)
 .text.usbhid_ireq_callback
                0x000000008000d4fc      0x178 /usr/local/xenon/usr/lib/libxenon.a(usbhid.o)
 .text.usbhub_markdetached1
                0x000000008000d674       0x14 /usr/local/xenon/usr/lib/libxenon.a(usbhub.o)
 .text.usbhub_get_port_status
                0x000000008000d688       0x1c /usr/local/xenon/usr/lib/libxenon.a(usbhub.o)
 .text.usbhub_ireq_callback
                0x000000008000d6a4       0x88 /usr/local/xenon/usr/lib/libxenon.a(usbhub.o)
 .text.usbhub_map_tree1
                0x000000008000d72c       0x78 /usr/local/xenon/usr/lib/libxenon.a(usbhub.o)
 .text.usbhub_detach
                0x000000008000d7a4      0x148 /usr/local/xenon/usr/lib/libxenon.a(usbhub.o)
 .text.usbhub_attach
                0x000000008000d8ec      0x194 /usr/local/xenon/usr/lib/libxenon.a(usbhub.o)
 .text.usbhub_map_tree
                0x000000008000da80       0x14 /usr/local/xenon/usr/lib/libxenon.a(usbhub.o)
                0x000000008000da80                usbhub_map_tree
 .text.usbhub_map_from_device
                0x000000008000da94       0x10 /usr/local/xenon/usr/lib/libxenon.a(usbhub.o)
                0x000000008000da94                usbhub_map_from_device
 .text.usbhub_scan1
                0x000000008000daa4      0x52c /usr/local/xenon/usr/lib/libxenon.a(usbhub.o)
 .text.usb_scan
                0x000000008000dfd0       0x10 /usr/local/xenon/usr/lib/libxenon.a(usbhub.o)
                0x000000008000dfd0                usb_scan
 .text.ehci_maligned
                0x000000008000dfe0       0x88 /usr/local/xenon/usr/lib/libxenon.a(usb_os.o)
                0x000000008000dfe0                ehci_maligned
 .text.ehci_virt_to_dma
                0x000000008000e068        0x8 /usr/local/xenon/usr/lib/libxenon.a(usb_os.o)
                0x000000008000e068                ehci_virt_to_dma
 .text.ehci_dma_map_to
                0x000000008000e070       0x24 /usr/local/xenon/usr/lib/libxenon.a(usb_os.o)
                0x000000008000e070                ehci_dma_map_to
 .text.ehci_dma_map_from
                0x000000008000e094       0x24 /usr/local/xenon/usr/lib/libxenon.a(usb_os.o)
                0x000000008000e094                ehci_dma_map_from
 .text.ehci_dma_map_bidir
                0x000000008000e0b8       0x24 /usr/local/xenon/usr/lib/libxenon.a(usb_os.o)
                0x000000008000e0b8                ehci_dma_map_bidir
 .text.ehci_dma_unmap_to
                0x000000008000e0dc        0x8 /usr/local/xenon/usr/lib/libxenon.a(usb_os.o)
                0x000000008000e0dc                ehci_dma_unmap_to
 .text.ehci_dma_unmap_from
                0x000000008000e0e4        0x4 /usr/local/xenon/usr/lib/libxenon.a(usb_os.o)
                0x000000008000e0e4                ehci_dma_unmap_from
 .text.ehci_dma_unmap_bidir
                0x000000008000e0e8        0x4 /usr/local/xenon/usr/lib/libxenon.a(usb_os.o)
                0x000000008000e0e8                ehci_dma_unmap_bidir
 .text.ehci_usleep
                0x000000008000e0ec        0x4 /usr/local/xenon/usr/lib/libxenon.a(usb_os.o)
                0x000000008000e0ec                ehci_usleep
 .text.ehci_msleep
                0x000000008000e0f0        0x4 /usr/local/xenon/usr/lib/libxenon.a(usb_os.o)
                0x000000008000e0f0                ehci_msleep
 .text.USB_Alloc
                0x000000008000e0f4        0x4 /usr/local/xenon/usr/lib/libxenon.a(usb_os.o)
                0x000000008000e0f4                USB_Alloc
 .text.USB_Free
                0x000000008000e0f8        0x4 /usr/local/xenon/usr/lib/libxenon.a(usb_os.o)
                0x000000008000e0f8                USB_Free
 .text.xenon_gpio_set_oe
                0x000000008000e0fc       0x54 /usr/local/xenon/usr/lib/libxenon.a(xenon_gpio.o)
                0x000000008000e0fc                xenon_gpio_set_oe
 .text.xenon_gpio_set
                0x000000008000e150       0x54 /usr/local/xenon/usr/lib/libxenon.a(xenon_gpio.o)
                0x000000008000e150                xenon_gpio_set
 .text          0x000000008000e1a4       0x3c /usr/local/xenon/usr/lib/libxenon.a(cpusleep.o)
                0x000000008000e1a4                cpusleep
 .text.q_enqueue
                0x000000008000e1e0       0x18 /usr/local/xenon/usr/lib/libxenon.a(lib_queue.o)
                0x000000008000e1e0                q_enqueue
 .text.q_deqnext
                0x000000008000e1f8       0x2c /usr/local/xenon/usr/lib/libxenon.a(lib_queue.o)
                0x000000008000e1f8                q_deqnext
 .text.dummy_attach
                0x000000008000e224        0x8 /usr/local/xenon/usr/lib/libxenon.a(dummy.o)
 .text.dummy_detach
                0x000000008000e22c        0x8 /usr/local/xenon/usr/lib/libxenon.a(dummy.o)
 .text.usbctrl_queue_intreq
                0x000000008000e234       0x4c /usr/local/xenon/usr/lib/libxenon.a(usbctrl.o)
 .text.usbctrl_set_led_callback
                0x000000008000e280       0x38 /usr/local/xenon/usr/lib/libxenon.a(usbctrl.o)
 .text.usbctrl_set_rol
                0x000000008000e2b8       0x2c /usr/local/xenon/usr/lib/libxenon.a(usbctrl.o)
                0x000000008000e2b8                usbctrl_set_rol
 .text.usbctrl_detach
                0x000000008000e2e4       0x88 /usr/local/xenon/usr/lib/libxenon.a(usbctrl.o)
 .text.usbctrl_set_leds
                0x000000008000e36c      0x108 /usr/local/xenon/usr/lib/libxenon.a(usbctrl.o)
                0x000000008000e36c                usbctrl_set_leds
 .text.usbctrl_ireq_callback
                0x000000008000e474      0x250 /usr/local/xenon/usr/lib/libxenon.a(usbctrl.o)
 .text.usbctrl_poll
                0x000000008000e6c4       0xb0 /usr/local/xenon/usr/lib/libxenon.a(usbctrl.o)
                0x000000008000e6c4                usbctrl_poll
 .text.usbctrl_attach
                0x000000008000e774      0x2f8 /usr/local/xenon/usr/lib/libxenon.a(usbctrl.o)
 .text.getstringmaybe
                0x000000008000ea6c       0x6c /usr/local/xenon/usr/lib/libxenon.a(usbdebug.o)
 .text.usb_dbg_dumpportstatus
                0x000000008000ead8      0x244 /usr/local/xenon/usr/lib/libxenon.a(usbdebug.o)
                0x000000008000ead8                usb_dbg_dumpportstatus
 .text.usb_dbg_dumpdescriptors
                0x000000008000ed1c      0x618 /usr/local/xenon/usr/lib/libxenon.a(usbdebug.o)
                0x000000008000ed1c                usb_dbg_dumpdescriptors
 .text.set_controller_data
                0x000000008000f334       0x50 /usr/local/xenon/usr/lib/libxenon.a(input.o)
                0x000000008000f334                set_controller_data
 .text          0x000000008000f384      0x4bc /usr/local/xenon/usr/lib/libfat.a(libfat.o)
                0x000000008000f384                fatMount
                0x000000008000f4b4                fatMountSimple
                0x000000008000f4c4                fatUnmount
                0x000000008000f53c                fatInit
                0x000000008000f6d4                fatInitDefault
                0x000000008000f6e0                fatGetVolumeLabel
 .text          0x000000008000f840      0xa08 /usr/local/xenon/usr/lib/libfat.a(partition.o)
                0x000000008000f8a4                FindFirstValidPartition_buf
                0x000000008000fab8                FindFirstValidPartition
                0x000000008000fb0c                _FAT_partition_getPartitionFromPath
                0x000000008000fb38                _FAT_partition_createFSinfo
                0x000000008000fc18                _FAT_partition_readFSinfo
                0x000000008000fd18                _FAT_partition_constructor_buf
                0x0000000080010058                _FAT_partition_constructor
                0x00000000800100c0                _FAT_partition_writeFSinfo
                0x00000000800101c8                _FAT_partition_destructor
 .text          0x0000000080010248      0x7a4 /usr/local/xenon/usr/lib/libfat.a(cache.o)
                0x00000000800103a4                _FAT_cache_constructor
                0x000000008001047c                _FAT_cache_readSectors
                0x0000000080010528                _FAT_cache_readPartialSector
                0x00000000800105b4                _FAT_cache_readLittleEndianValue
                0x0000000080010628                _FAT_cache_writePartialSector
                0x00000000800106bc                _FAT_cache_writeLittleEndianValue
                0x0000000080010738                _FAT_cache_eraseWritePartialSector
                0x00000000800107e4                _FAT_cache_writeSectors
                0x0000000080010898                _FAT_cache_flush
                0x0000000080010924                _FAT_cache_destructor
                0x000000008001098c                _FAT_cache_invalidate
 .text          0x00000000800109ec     0x1954 /usr/local/xenon/usr/lib/libfat.a(directory.o)
                0x0000000080010e0c                _FAT_directory_entryGetCluster
                0x0000000080010e60                _FAT_directory_getNextEntry
                0x00000000800110c4                _FAT_directory_getFirstEntry
                0x00000000800111b4                _FAT_directory_getRootEntry
                0x000000008001124c                _FAT_directory_getVolumeLabel
                0x0000000080011340                _FAT_directory_entryFromPosition
                0x00000000800114e4                _FAT_directory_entryFromPath
                0x0000000080011728                _FAT_directory_removeEntry
                0x0000000080011814                _FAT_directory_addEntry
                0x0000000080012184                _FAT_directory_chdir
                0x00000000800121e4                _FAT_directory_entryStat
 .text          0x0000000080012340       0x30 /usr/local/xenon/usr/lib/libfat.a(disc.o)
 .text          0x0000000080012370      0xc10 /usr/local/xenon/usr/lib/libfat.a(fatdir.o)
                0x0000000080012370                _FAT_stat_r
                0x0000000080012438                _FAT_link_r
                0x0000000080012448                _FAT_unlink_r
                0x0000000080012600                _FAT_chdir_r
                0x00000000800126a8                _FAT_rename_r
                0x00000000800128e4                _FAT_mkdir_r
                0x0000000080012bec                _FAT_statvfs_r
                0x0000000080012ce8                _FAT_diropen_r
                0x0000000080012dfc                _FAT_dirreset_r
                0x0000000080012e74                _FAT_dirnext_r
                0x0000000080012f40                _FAT_dirclose_r
 .text          0x0000000080012f80     0x1804 /usr/local/xenon/usr/lib/libfat.a(fatfile.o)
                0x0000000080013314                _FAT_findEntry
                0x000000008001339c                FAT_getAttr
                0x00000000800133d4                FAT_setAttr
                0x0000000080013404                _FAT_open_r
                0x00000000800137b8                _FAT_syncToDisc
                0x0000000080013900                _FAT_close_r
                0x00000000800139c8                _FAT_read_r
                0x0000000080013d80                _FAT_write_r
                0x00000000800142a0                _FAT_seek_r
                0x0000000080014460                _FAT_fstat_r
                0x0000000080014528                _FAT_ftruncate_r
                0x0000000080014710                _FAT_fsync_r
 .text          0x0000000080014784      0x714 /usr/local/xenon/usr/lib/libfat.a(file_allocation_table.o)
                0x0000000080014930                _FAT_fat_nextCluster
                0x0000000080014ac4                _FAT_fat_linkFreeCluster
                0x0000000080014bac                _FAT_fat_linkFreeClusterCleared
                0x0000000080014c5c                _FAT_fat_clearLinks
                0x0000000080014d1c                _FAT_fat_trimChain
                0x0000000080014dd4                _FAT_fat_lastCluster
                0x0000000080014e40                _FAT_fat_freeClusterCount
 .text          0x0000000080014e98      0x178 /usr/local/xenon/usr/lib/libfat.a(filetime.o)
                0x0000000080014e98                _FAT_filetime_getTimeFromRTC
                0x0000000080014f20                _FAT_filetime_getDateFromRTC
                0x0000000080014fa8                _FAT_filetime_to_time_t
 .text          0x0000000080015010       0x10 /usr/local/xenon/usr/lib/libfat.a(lock.o)
                0x0000000080015010                _FAT_lock_init
                0x0000000080015014                _FAT_lock_deinit
                0x0000000080015018                _FAT_lock
                0x000000008001501c                _FAT_unlock
 .text          0x0000000080015020       0x4c /usr/local/xenon/lib/gcc/xenon/9.2.0/32/libgcc.a(crtsavgpr.o)
                0x0000000080015020                _savegpr_14
                0x0000000080015024                _savegpr_15
                0x0000000080015028                _savegpr_16
                0x000000008001502c                _savegpr_17
                0x0000000080015030                _savegpr_18
                0x0000000080015034                _savegpr_19
                0x0000000080015038                _savegpr_20
                0x000000008001503c                _savegpr_21
                0x0000000080015040                _savegpr_22
                0x0000000080015044                _savegpr_23
                0x0000000080015048                _savegpr_24
                0x000000008001504c                _savegpr_25
                0x0000000080015050                _savegpr_26
                0x0000000080015054                _savegpr_27
                0x0000000080015058                _savegpr_28
                0x000000008001505c                _savegpr_29
                0x0000000080015060                _savegpr_30
                0x0000000080015064                _savegpr_31
 .text          0x000000008001506c       0x58 /usr/local/xenon/lib/gcc/xenon/9.2.0/32/libgcc.a(crtresxgpr.o)
                0x000000008001506c                _restgpr_14_x
                0x0000000080015070                _restgpr_15_x
                0x0000000080015074                _restgpr_16_x
                0x0000000080015078                _restgpr_17_x
                0x000000008001507c                _restgpr_18_x
                0x0000000080015080                _restgpr_19_x
                0x0000000080015084                _restgpr_20_x
                0x0000000080015088                _restgpr_21_x
                0x000000008001508c                _restgpr_22_x
                0x0000000080015090                _restgpr_23_x
                0x0000000080015094                _restgpr_24_x
                0x0000000080015098                _restgpr_25_x
                0x000000008001509c                _restgpr_26_x
                0x00000000800150a0                _restgpr_27_x
                0x00000000800150a4                _restgpr_28_x
                0x00000000800150a8                _restgpr_29_x
                0x00000000800150ac                _restgpr_30_x
                0x00000000800150b0                _restgpr_31_x
 *fill*         0x00000000800150c4        0x4 
 .text          0x00000000800150c8     0x1b98 /usr/local/xenon/lib/gcc/xenon/9.2.0/32/libgcc.a(unwind-dw2-fde-dip.o)
                0x000000008001677c                __register_frame_info_bases
                0x0000000080016818                __register_frame_info
                0x0000000080016828                __register_frame
                0x000000008001687c                __register_frame_info_table_bases
                0x0000000080016904                __register_frame_info_table
                0x0000000080016994                __register_frame_table
                0x0000000080016a30                __deregister_frame_info_bases
                0x0000000080016a50                __deregister_frame_info
                0x0000000080016a70                __deregister_frame
                0x0000000080016aa4                _Unwind_Find_FDE
 .text          0x0000000080016c60       0x78 /usr/local/xenon/xenon/lib/32/libc.a(lib_a-assert.o)
                0x0000000080016c60                __assert_func
                0x0000000080016cc0                __assert
 .text          0x0000000080016cd8       0x40 /usr/local/xenon/xenon/lib/32/libc.a(lib_a-exit.o)
                0x0000000080016cd8                exit
 .text          0x0000000080016d18      0x170 /usr/local/xenon/xenon/lib/32/libc.a(lib_a-fclose.o)
                0x0000000080016d18                _fclose_r
                0x0000000080016e78                fclose
 .text          0x0000000080016e88      0x3c4 /usr/local/xenon/xenon/lib/32/libc.a(lib_a-fflush.o)
                0x0000000080016e88                __sflush_r
                0x00000000800171b0                _fflush_r
                0x0000000080017220                fflush
 *fill*         0x000000008001724c        0x4 
 .text          0x0000000080017250      0x3c4 /usr/local/xenon/xenon/lib/32/libc.a(lib_a-findfp.o)
                0x0000000080017258                _cleanup_r
                0x0000000080017408                __sfmoreglue
                0x0000000080017480                __sfp
                0x00000000800175a0                _cleanup
                0x00000000800175b8                __sinit
                0x00000000800175c8                __sfp_lock_acquire
                0x00000000800175d0                __sfp_lock_release
                0x00000000800175d8                __sinit_lock_acquire
                0x00000000800175e0                __sinit_lock_release
                0x00000000800175e8                __fp_lock_all
                0x0000000080017600                __fp_unlock_all
 *fill*         0x0000000080017614        0x4 
 .text          0x0000000080017618      0x110 /usr/local/xenon/xenon/lib/32/libc.a(lib_a-fiprintf.o)
                0x0000000080017618                _fiprintf_r
                0x0000000080017698                fiprintf
 .text          0x0000000080017728      0x15c /usr/local/xenon/xenon/lib/32/libc.a(lib_a-fopen.o)
                0x0000000080017728                _fopen_r
                0x0000000080017870                fopen
 *fill*         0x0000000080017884        0x4 
 .text          0x0000000080017888      0x4a4 /usr/local/xenon/xenon/lib/32/libc.a(lib_a-freer.o)
                0x0000000080017888                _malloc_trim_r
                0x00000000800179c8                _free_r
 *fill*         0x0000000080017d2c        0x4 
 .text          0x0000000080017d30       0x24 /usr/local/xenon/xenon/lib/32/libc.a(lib_a-fseek.o)
                0x0000000080017d30                _fseek_r
                0x0000000080017d38                fseek
 *fill*         0x0000000080017d54        0x4 
 .text          0x0000000080017d58      0x564 /usr/local/xenon/xenon/lib/32/libc.a(lib_a-fseeko.o)
                0x0000000080017d58                _fseeko_r
                0x00000000800182a0                fseeko
 *fill*         0x00000000800182bc        0x4 
 .text          0x00000000800182c0       0x80 /usr/local/xenon/xenon/lib/32/libc.a(lib_a-fstatr.o)
                0x00000000800182c0                _fstat_r
 .text          0x0000000080018340      0x16c /usr/local/xenon/xenon/lib/32/libc.a(lib_a-fwalk.o)
                0x0000000080018340                _fwalk
                0x00000000800183f0                _fwalk_reent
 *fill*         0x00000000800184ac        0x4 
 .text          0x00000000800184b0       0xfc /usr/local/xenon/xenon/lib/32/libc.a(lib_a-fwrite.o)
                0x00000000800184b0                _fwrite_r
                0x0000000080018588                fwrite
 *fill*         0x00000000800185ac        0x4 
 .text          0x00000000800185b0      0x4b4 /usr/local/xenon/xenon/lib/32/libc.a(lib_a-lcltime_r.o)
                0x00000000800185b0                localtime_r
 *fill*         0x0000000080018a64        0x4 
 .text          0x0000000080018a68       0xcc /usr/local/xenon/xenon/lib/32/libc.a(lib_a-locale.o)
                0x0000000080018a68                _setlocale_r
                0x0000000080018b10                __locale_mb_cur_max
                0x0000000080018b20                setlocale
 *fill*         0x0000000080018b34        0x4 
 .text          0x0000000080018b38      0x23c /usr/local/xenon/xenon/lib/32/libc.a(lib_a-makebuf.o)
                0x0000000080018b38                __swhatbuf_r
                0x0000000080018c18                __smakebuf_r
 *fill*         0x0000000080018d74        0x4 
 .text          0x0000000080018d78       0x14 /usr/local/xenon/xenon/lib/32/libc.a(lib_a-malign.o)
                0x0000000080018d78                memalign
 *fill*         0x0000000080018d8c        0x4 
 .text          0x0000000080018d90      0x1bc /usr/local/xenon/xenon/lib/32/libc.a(lib_a-malignr.o)
                0x0000000080018d90                _memalign_r
 *fill*         0x0000000080018f4c        0x4 
 .text          0x0000000080018f50       0x20 /usr/local/xenon/xenon/lib/32/libc.a(lib_a-malloc.o)
                0x0000000080018f50                malloc
                0x0000000080018f60                free
 .text          0x0000000080018f70      0x8b8 /usr/local/xenon/xenon/lib/32/libc.a(lib_a-mallocr.o)
                0x0000000080018f70                _malloc_r
 .text          0x0000000080019828      0x158 /usr/local/xenon/xenon/lib/32/libc.a(lib_a-mbrtowc.o)
                0x0000000080019828                _mbrtowc_r
                0x00000000800198c8                mbrtowc
 .text          0x0000000080019980       0x3c /usr/local/xenon/xenon/lib/32/libc.a(lib_a-mbsrtowcs.o)
                0x0000000080019980                _mbsrtowcs_r
                0x0000000080019998                mbsrtowcs
 *fill*         0x00000000800199bc        0x4 
 .text          0x00000000800199c0       0x98 /usr/local/xenon/xenon/lib/32/libc.a(lib_a-mbtowc_r.o)
                0x00000000800199c0                _mbtowc_r
                0x00000000800199d0                __ascii_mbtowc
 .text          0x0000000080019a58       0x98 /usr/local/xenon/xenon/lib/32/libc.a(lib_a-memcmp.o)
                0x0000000080019a58                memcmp
 .text          0x0000000080019af0      0x104 /usr/local/xenon/xenon/lib/32/libc.a(lib_a-memcpy.o)
                0x0000000080019af0                memcpy
 *fill*         0x0000000080019bf4        0x4 
 .text          0x0000000080019bf8      0x13c /usr/local/xenon/xenon/lib/32/libc.a(lib_a-memmove.o)
                0x0000000080019bf8                memmove
 *fill*         0x0000000080019d34        0x4 
 .text          0x0000000080019d38      0x108 /usr/local/xenon/xenon/lib/32/libc.a(lib_a-memset.o)
                0x0000000080019d38                memset
 .text          0x0000000080019e40      0x9ec /usr/local/xenon/xenon/lib/32/libc.a(lib_a-mktime.o)
                0x000000008001a1e0                mktime
 *fill*         0x000000008001a82c        0x4 
 .text          0x000000008001a830       0x88 /usr/local/xenon/xenon/lib/32/libc.a(lib_a-openr.o)
                0x000000008001a830                _open_r
 .text          0x000000008001a8b8      0x11c /usr/local/xenon/xenon/lib/32/libc.a(lib_a-printf.o)
                0x000000008001a8b8                _printf_r
                0x000000008001a940                printf
 *fill*         0x000000008001a9d4        0x4 
 .text          0x000000008001a9d8       0x1c /usr/local/xenon/xenon/lib/32/libc.a(lib_a-putchar.o)
                0x000000008001a9d8                _putchar_r
                0x000000008001a9e0                putchar
 *fill*         0x000000008001a9f4        0x4 
 .text          0x000000008001a9f8       0xf0 /usr/local/xenon/xenon/lib/32/libc.a(lib_a-puts.o)
                0x000000008001a9f8                _puts_r
                0x000000008001aad8                puts
 .text          0x000000008001aae8      0x284 /usr/local/xenon/xenon/lib/32/libc.a(lib_a-refill.o)
                0x000000008001ab08                __srefill_r
 *fill*         0x000000008001ad6c        0x4 
 .text          0x000000008001ad70       0x78 /usr/local/xenon/xenon/lib/32/libc.a(lib_a-sbrkr.o)
                0x000000008001ad70                _sbrk_r
 .text          0x000000008001ade8      0x2cc /usr/local/xenon/xenon/lib/32/libc.a(lib_a-snprintf.o)
                0x000000008001ade8                _snprintf_r
                0x000000008001af50                snprintf
 *fill*         0x000000008001b0b4        0x4 
 .text          0x000000008001b0b8      0x17c /usr/local/xenon/xenon/lib/32/libc.a(lib_a-sprintf.o)
                0x000000008001b0b8                _sprintf_r
                0x000000008001b170                sprintf
 *fill*         0x000000008001b234        0x4 
 .text          0x000000008001b238      0x198 /usr/local/xenon/xenon/lib/32/libc.a(lib_a-stdio.o)
                0x000000008001b238                __sread
                0x000000008001b2a0                __seofread
                0x000000008001b2a8                __swrite
                0x000000008001b360                __sseek
                0x000000008001b3c8                __sclose
 .text          0x000000008001b3d0       0x8c /usr/local/xenon/xenon/lib/32/libc.a(lib_a-stpcpy.o)
                0x000000008001b3d0                stpcpy
 *fill*         0x000000008001b45c        0x4 
 .text          0x000000008001b460       0x90 /usr/local/xenon/xenon/lib/32/libc.a(lib_a-strcat.o)
                0x000000008001b460                strcat
 .text          0x000000008001b4f0      0x164 /usr/local/xenon/xenon/lib/32/libc.a(lib_a-strchr.o)
                0x000000008001b4f0                strchr
 *fill*         0x000000008001b654        0x4 
 .text          0x000000008001b658       0x9c /usr/local/xenon/xenon/lib/32/libc.a(lib_a-strcmp.o)
                0x000000008001b658                strcmp
 *fill*         0x000000008001b6f4        0x4 
 .text          0x000000008001b6f8       0x8c /usr/local/xenon/xenon/lib/32/libc.a(lib_a-strcpy.o)
                0x000000008001b6f8                strcpy
 *fill*         0x000000008001b784        0x4 
 .text          0x000000008001b788       0x94 /usr/local/xenon/xenon/lib/32/libc.a(lib_a-strlen.o)
                0x000000008001b788                strlen
 *fill*         0x000000008001b81c        0x4 
 .text          0x000000008001b820       0x90 /usr/local/xenon/xenon/lib/32/libc.a(lib_a-strncasecmp.o)
                0x000000008001b820                strncasecmp
 .text          0x000000008001b8b0       0xd8 /usr/local/xenon/xenon/lib/32/libc.a(lib_a-strncmp.o)
                0x000000008001b8b0                strncmp
 .text          0x000000008001b988       0xd4 /usr/local/xenon/xenon/lib/32/libc.a(lib_a-strncpy.o)
                0x000000008001b988                strncpy
 *fill*         0x000000008001ba5c        0x4 
 .text          0x000000008001ba60       0x40 /usr/local/xenon/xenon/lib/32/libc.a(lib_a-strnlen.o)
                0x000000008001ba60                strnlen
 .text          0x000000008001baa0       0x80 /usr/local/xenon/xenon/lib/32/libc.a(lib_a-strpbrk.o)
                0x000000008001baa0                strpbrk
 .text          0x000000008001bb20       0x6c /usr/local/xenon/xenon/lib/32/libc.a(lib_a-strrchr.o)
                0x000000008001bb20                strrchr
 *fill*         0x000000008001bb8c        0x4 
 .text          0x000000008001bb90     0x200c /usr/local/xenon/xenon/lib/32/libc.a(lib_a-svfprintf.o)
                0x000000008001bb90                _svfprintf_r
 *fill*         0x000000008001db9c        0x4 
 .text          0x000000008001dba0       0x6c /usr/local/xenon/xenon/lib/32/libc.a(lib_a-time.o)
                0x000000008001dba0                time
 *fill*         0x000000008001dc0c        0x4 
 .text          0x000000008001dc10       0x28 /usr/local/xenon/xenon/lib/32/libc.a(lib_a-towlower.o)
                0x000000008001dc10                towlower
 .text          0x000000008001dc38       0x28 /usr/local/xenon/xenon/lib/32/libc.a(lib_a-towupper.o)
                0x000000008001dc38                towupper
 .text          0x000000008001dc60      0x298 /usr/local/xenon/xenon/lib/32/libc.a(lib_a-tzcalc_limits.o)
                0x000000008001dc60                __tzcalc_limits
 .text          0x000000008001def8        0xc /usr/local/xenon/xenon/lib/32/libc.a(lib_a-tzlock.o)
                0x000000008001def8                __tz_lock
                0x000000008001df00                __tz_unlock
 *fill*         0x000000008001df04        0x4 
 .text          0x000000008001df08       0x3c /usr/local/xenon/xenon/lib/32/libc.a(lib_a-tzset.o)
                0x000000008001df08                _tzset_unlocked
                0x000000008001df18                tzset
 *fill*         0x000000008001df44        0x4 
 .text          0x000000008001df48      0x5ac /usr/local/xenon/xenon/lib/32/libc.a(lib_a-tzset_r.o)
                0x000000008001df48                _tzset_unlocked_r
                0x000000008001e4c0                _tzset_r
 *fill*         0x000000008001e4f4        0x4 
 .text          0x000000008001e4f8     0x161c /usr/local/xenon/xenon/lib/32/libc.a(lib_a-vfiprintf.o)
                0x000000008001e648                __sprint_r
                0x000000008001e668                _vfiprintf_r
                0x000000008001fa20                vfiprintf
 *fill*         0x000000008001fb14        0x4 
 .text          0x000000008001fb18     0x219c /usr/local/xenon/xenon/lib/32/libc.a(lib_a-vfprintf.o)
                0x000000008001fb18                _vfprintf_r
                0x0000000080021bc0                vfprintf
 *fill*         0x0000000080021cb4        0x4 
 .text          0x0000000080021cb8       0x74 /usr/local/xenon/xenon/lib/32/libc.a(lib_a-vsprintf.o)
                0x0000000080021cb8                _vsprintf_r
                0x0000000080021d10                vsprintf
 *fill*         0x0000000080021d2c        0x4 
 .text          0x0000000080021d30      0x144 /usr/local/xenon/xenon/lib/32/libc.a(lib_a-wcrtomb.o)
                0x0000000080021d30                _wcrtomb_r
                0x0000000080021dc8                wcrtomb
 *fill*         0x0000000080021e74        0x4 
 .text          0x0000000080021e78       0x80 /usr/local/xenon/xenon/lib/32/libc.a(lib_a-wctob.o)
                0x0000000080021e78                wctob
 .text          0x0000000080021ef8       0x48 /usr/local/xenon/xenon/lib/32/libc.a(lib_a-wctomb_r.o)
                0x0000000080021ef8                _wctomb_r
                0x0000000080021f08                __ascii_wctomb
 .text          0x0000000080021f40       0x80 /usr/local/xenon/xenon/lib/32/libc.a(lib_a-writer.o)
                0x0000000080021f40                _write_r
 .text          0x0000000080021fc0      0x1b8 /usr/local/xenon/xenon/lib/32/libc.a(lib_a-wsetup.o)
                0x0000000080021fc0                __swsetup_r
 .text          0x0000000080022178      0x178 /usr/local/xenon/xenon/lib/32/libc.a(lib_a-__call_atexit.o)
                0x0000000080022178                __call_exitprocs
 .text          0x00000000800222f0       0x78 /usr/local/xenon/xenon/lib/32/libc.a(lib_a-closer.o)
                0x00000000800222f0                _close_r
 .text          0x0000000080022368       0x5c /usr/local/xenon/xenon/lib/32/libc.a(lib_a-div.o)
                0x0000000080022368                div
 *fill*         0x00000000800223c4        0x4 
 .text          0x00000000800223c8     0x1478 /usr/local/xenon/xenon/lib/32/libc.a(lib_a-dtoa.o)
                0x0000000080022608                _dtoa_r
 .text          0x0000000080023840       0xb8 /usr/local/xenon/xenon/lib/32/libc.a(lib_a-flags.o)
                0x0000000080023840                __sflags
 .text          0x00000000800238f8      0x25c /usr/local/xenon/xenon/lib/32/libc.a(lib_a-fputwc.o)
                0x00000000800238f8                __fputwc
                0x0000000080023a80                _fputwc_r
                0x0000000080023aa8                fputwc
 *fill*         0x0000000080023b54        0x4 
 .text          0x0000000080023b58      0x5c8 /usr/local/xenon/xenon/lib/32/libc.a(lib_a-fvwrite.o)
                0x0000000080023b58                __sfvwrite_r
 .text          0x0000000080024120      0x16c /usr/local/xenon/xenon/lib/32/libc.a(lib_a-getenv_r.o)
                0x0000000080024120                _findenv_r
                0x0000000080024268                _getenv_r
 *fill*         0x000000008002428c        0x4 
 .text          0x0000000080024290       0x80 /usr/local/xenon/xenon/lib/32/libc.a(lib_a-gettimeofdayr.o)
                0x0000000080024290                _gettimeofday_r
 .text          0x0000000080024310        0xc /usr/local/xenon/xenon/lib/32/libc.a(lib_a-gettzinfo.o)
                0x0000000080024310                __gettzinfo
 *fill*         0x000000008002431c        0x4 
 .text          0x0000000080024320      0x2ec /usr/local/xenon/xenon/lib/32/libc.a(lib_a-gmtime_r.o)
                0x0000000080024320                gmtime_r
 *fill*         0x000000008002460c        0x4 
 .text          0x0000000080024610       0x78 /usr/local/xenon/xenon/lib/32/libc.a(lib_a-isattyr.o)
                0x0000000080024610                _isatty_r
 .text          0x0000000080024688       0x24 /usr/local/xenon/xenon/lib/32/libc.a(lib_a-localeconv.o)
                0x0000000080024688                __localeconv_l
                0x0000000080024690                _localeconv_r
                0x00000000800246a0                localeconv
 *fill*         0x00000000800246ac        0x4 
 .text          0x00000000800246b0       0x80 /usr/local/xenon/xenon/lib/32/libc.a(lib_a-lseekr.o)
                0x00000000800246b0                _lseek_r
 .text          0x0000000080024730      0x1f8 /usr/local/xenon/xenon/lib/32/libc.a(lib_a-mbsnrtowcs.o)
                0x0000000080024730                _mbsnrtowcs_r
                0x00000000800248f8                mbsnrtowcs
 .text          0x0000000080024928       0xd4 /usr/local/xenon/xenon/lib/32/libc.a(lib_a-memchr.o)
                0x0000000080024928                memchr
 *fill*         0x00000000800249fc        0x4 
 .text          0x0000000080024a00     0x1280 /usr/local/xenon/xenon/lib/32/libc.a(lib_a-mprec.o)
                0x0000000080024a00                _Balloc
                0x0000000080024ae8                _Bfree
                0x0000000080024b10                __multadd
                0x0000000080024c38                __s2b
                0x0000000080024d80                __hi0bits
                0x0000000080024de8                __lo0bits
                0x0000000080024ea0                __i2b
                0x0000000080024ee0                __multiply
                0x0000000080025148                __pow5mult
                0x00000000800252c0                __lshift
                0x0000000080025448                __mcmp
                0x00000000800254a8                __mdiff
                0x00000000800256d0                __ulp
                0x0000000080025770                __b2d
                0x00000000800258c8                __d2b
                0x0000000080025a50                __ratio
                0x0000000080025b28                _mprec_log10
                0x0000000080025b70                __copybits
                0x0000000080025c08                __any_on
 .text          0x0000000080025c80      0x164 /usr/local/xenon/xenon/lib/32/libc.a(lib_a-putc.o)
                0x0000000080025c80                _putc_r
                0x0000000080025d20                putc
 *fill*         0x0000000080025de4        0x4 
 .text          0x0000000080025de8       0x80 /usr/local/xenon/xenon/lib/32/libc.a(lib_a-readr.o)
                0x0000000080025de8                _read_r
 .text          0x0000000080025e68      0x670 /usr/local/xenon/xenon/lib/32/libc.a(lib_a-reallocr.o)
                0x0000000080025e68                _realloc_r
 .text          0x00000000800264d8      0x1b8 /usr/local/xenon/xenon/lib/32/libc.a(lib_a-siscanf.o)
                0x00000000800264d8                siscanf
                0x00000000800265b0                _siscanf_r
 .text          0x0000000080026690      0x26c /usr/local/xenon/xenon/lib/32/libc.a(lib_a-strtoul.o)
                0x00000000800268b8                _strtoul_r
                0x00000000800268c0                strtoul_l
                0x00000000800268e0                strtoul
 *fill*         0x00000000800268fc        0x4 
 .text          0x0000000080026900     0x1428 /usr/local/xenon/xenon/lib/32/libc.a(lib_a-svfiprintf.o)
                0x0000000080026900                __ssprint_r
                0x0000000080026b50                _svfiprintf_r
 .text          0x0000000080027d28     0x160c /usr/local/xenon/xenon/lib/32/libc.a(lib_a-svfiscanf.o)
                0x0000000080027d28                _sungetc_r
                0x0000000080027e70                __ssrefill_r
                0x0000000080027f00                _sfread_r
                0x0000000080028020                __ssvfiscanf_r
 *fill*         0x0000000080029334        0x4 
 .text          0x0000000080029338      0x374 /usr/local/xenon/xenon/lib/32/libc.a(lib_a-ungetc.o)
                0x0000000080029338                __submore
                0x0000000080029438                _ungetc_r
                0x0000000080029698                ungetc
 *fill*         0x00000000800296ac        0x4 
 .text          0x00000000800296b0      0x1dc /usr/local/xenon/xenon/lib/32/libc.a(lib_a-wbuf.o)
                0x00000000800296b0                __swbuf_r
                0x0000000080029878                __swbuf
 *fill*         0x000000008002988c        0x4 
 .text          0x0000000080029890       0xc8 /usr/local/xenon/xenon/lib/32/libc.a(lib_a-callocr.o)
                0x0000000080029890                _calloc_r
 .text          0x0000000080029958        0xc /usr/local/xenon/xenon/lib/32/libc.a(lib_a-envlock.o)
                0x0000000080029958                __env_lock
                0x0000000080029960                __env_unlock
 *fill*         0x0000000080029964        0x4 
 .text          0x0000000080029968        0x8 /usr/local/xenon/xenon/lib/32/libc.a(lib_a-iswspace.o)
                0x0000000080029968                iswspace
 .text          0x0000000080029970       0x28 /usr/local/xenon/xenon/lib/32/libc.a(lib_a-iswspace_l.o)
                0x0000000080029970                iswspace_l
 .text          0x0000000080029998      0x108 /usr/local/xenon/xenon/lib/32/libc.a(lib_a-sccl.o)
                0x0000000080029998                __sccl
 .text          0x0000000080029aa0      0x26c /usr/local/xenon/xenon/lib/32/libc.a(lib_a-strtol.o)
                0x0000000080029cc8                _strtol_r
                0x0000000080029cd0                strtol_l
                0x0000000080029cf0                strtol
 *fill*         0x0000000080029d0c        0x4 
 .text          0x0000000080029d10      0x354 /usr/local/xenon/xenon/lib/32/libc.a(lib_a-strtoll.o)
                0x000000008002a020                _strtoll_r
                0x000000008002a028                strtoll_l
                0x000000008002a048                strtoll
 *fill*         0x000000008002a064        0x4 
 .text          0x000000008002a068      0x38c /usr/local/xenon/xenon/lib/32/libc.a(lib_a-strtoull.o)
                0x000000008002a3b0                _strtoull_r
                0x000000008002a3b8                strtoull_l
                0x000000008002a3d8                strtoull
 *fill*         0x000000008002a3f4        0x4 
 .text          0x000000008002a3f8      0x414 /usr/local/xenon/lib/gcc/xenon/9.2.0/32/libgcc.a(_divdi3.o)
                0x000000008002a3f8                __divdi3
 *fill*         0x000000008002a80c        0x4 
 .text          0x000000008002a810      0x3a0 /usr/local/xenon/lib/gcc/xenon/9.2.0/32/libgcc.a(_moddi3.o)
                0x000000008002a810                __moddi3
 .text          0x000000008002abb0      0x3dc /usr/local/xenon/lib/gcc/xenon/9.2.0/32/libgcc.a(_udivdi3.o)
                0x000000008002abb0                __udivdi3
 *fill*         0x000000008002af8c        0x4 
 .text          0x000000008002af90      0x378 /usr/local/xenon/lib/gcc/xenon/9.2.0/32/libgcc.a(_umoddi3.o)
                0x000000008002af90                __umoddi3

.glink          0x000000008002b308        0x0
 .glink         0x000000008002b308        0x0 /usr/local/xenon/usr/lib/libxenon.a(xenon_syscalls.o)

.elfldr         0x000000008002b308        0x0
                0x000000008002b308                elfldr_start = .
 *(.elfldr)
                0x000000008002b308                elfldr_end = .

.data           0x000000008002b308     0x8468
 *(.data*)
 .data.xenon_ata_ops
                0x000000008002b308       0x24 /usr/local/xenon/usr/lib/libxenon.a(ata.o)
                0x000000008002b308                xenon_ata_ops
 *fill*         0x000000008002b32c        0x4 
 .data._current_working_directory
                0x000000008002b330      0x400 /usr/local/xenon/usr/lib/libxenon.a(newlib.o)
 .data.defaultDevice
                0x000000008002b730        0x4 /usr/local/xenon/usr/lib/libxenon.a(newlib.o)
 .data.devoptab_list
                0x000000008002b734       0x40 /usr/local/xenon/usr/lib/libxenon.a(newlib.o)
                0x000000008002b734                devoptab_list
 .data.__syscalls
                0x000000008002b774       0x24 /usr/local/xenon/usr/lib/libxenon.a(xenon_syscalls.o)
                0x000000008002b774                __syscalls
 .data.lockowner
                0x000000008002b798        0x4 /usr/local/xenon/usr/lib/libxenon.a(xenon_syscalls.o)
 .data.usb2mass_ops_0
                0x000000008002b79c       0x24 /usr/local/xenon/usr/lib/libxenon.a(tinyehci.o)
                0x000000008002b79c                usb2mass_ops_0
 .data.usb2mass_ops_1
                0x000000008002b7c0       0x24 /usr/local/xenon/usr/lib/libxenon.a(tinyehci.o)
                0x000000008002b7c0                usb2mass_ops_1
 .data.usb2mass_ops_2
                0x000000008002b7e4       0x24 /usr/local/xenon/usr/lib/libxenon.a(tinyehci.o)
                0x000000008002b7e4                usb2mass_ops_2
 .data.ana_hdmi_720p
                0x000000008002b808      0x400 /usr/local/xenon/usr/lib/libxenon.a(xenos.o)
                0x000000008002b808                ana_hdmi_720p
 .data.ana_hdmi_720p_corona
                0x000000008002bc08      0x400 /usr/local/xenon/usr/lib/libxenon.a(xenos.o)
                0x000000008002bc08                ana_hdmi_720p_corona
 .data.ana_ntsc
                0x000000008002c008      0x400 /usr/local/xenon/usr/lib/libxenon.a(xenos.o)
                0x000000008002c008                ana_ntsc
 .data.ana_ntsc_corona
                0x000000008002c408      0x400 /usr/local/xenon/usr/lib/libxenon.a(xenos.o)
                0x000000008002c408                ana_ntsc_corona
 .data.ana_pal50
                0x000000008002c808      0x400 /usr/local/xenon/usr/lib/libxenon.a(xenos.o)
                0x000000008002c808                ana_pal50
 .data.ana_pal50_corona
                0x000000008002cc08      0x400 /usr/local/xenon/usr/lib/libxenon.a(xenos.o)
                0x000000008002cc08                ana_pal50_corona
 .data.ana_pal60
                0x000000008002d008      0x400 /usr/local/xenon/usr/lib/libxenon.a(xenos.o)
                0x000000008002d008                ana_pal60
 .data.ana_pal60_corona
                0x000000008002d408      0x400 /usr/local/xenon/usr/lib/libxenon.a(xenos.o)
                0x000000008002d408                ana_pal60_corona
 .data.ana_vga_1024x768
                0x000000008002d808      0x400 /usr/local/xenon/usr/lib/libxenon.a(xenos.o)
                0x000000008002d808                ana_vga_1024x768
 .data.ana_vga_1024x768_corona
                0x000000008002dc08      0x400 /usr/local/xenon/usr/lib/libxenon.a(xenos.o)
                0x000000008002dc08                ana_vga_1024x768_corona
 .data.ana_vga_1280x1024
                0x000000008002e008      0x400 /usr/local/xenon/usr/lib/libxenon.a(xenos.o)
                0x000000008002e008                ana_vga_1280x1024
 .data.ana_vga_1280x1024_corona
                0x000000008002e408      0x400 /usr/local/xenon/usr/lib/libxenon.a(xenos.o)
                0x000000008002e408                ana_vga_1280x1024_corona
 .data.ana_vga_1280x720
                0x000000008002e808      0x400 /usr/local/xenon/usr/lib/libxenon.a(xenos.o)
                0x000000008002e808                ana_vga_1280x720
 .data.ana_vga_1280x720_corona
                0x000000008002ec08      0x400 /usr/local/xenon/usr/lib/libxenon.a(xenos.o)
                0x000000008002ec08                ana_vga_1280x720_corona
 .data.ana_vga_1280x768
                0x000000008002f008      0x400 /usr/local/xenon/usr/lib/libxenon.a(xenos.o)
                0x000000008002f008                ana_vga_1280x768
 .data.ana_vga_1280x768_corona
                0x000000008002f408      0x400 /usr/local/xenon/usr/lib/libxenon.a(xenos.o)
                0x000000008002f408                ana_vga_1280x768_corona
 .data.ana_vga_1360x768
                0x000000008002f808      0x400 /usr/local/xenon/usr/lib/libxenon.a(xenos.o)
                0x000000008002f808                ana_vga_1360x768
 .data.ana_vga_1360x768_corona
                0x000000008002fc08      0x400 /usr/local/xenon/usr/lib/libxenon.a(xenos.o)
                0x000000008002fc08                ana_vga_1360x768_corona
 .data.ana_vga_1440x900
                0x0000000080030008      0x400 /usr/local/xenon/usr/lib/libxenon.a(xenos.o)
                0x0000000080030008                ana_vga_1440x900
 .data.ana_vga_1440x900_corona
                0x0000000080030408      0x400 /usr/local/xenon/usr/lib/libxenon.a(xenos.o)
                0x0000000080030408                ana_vga_1440x900_corona
 .data.ana_vga_640x480
                0x0000000080030808      0x400 /usr/local/xenon/usr/lib/libxenon.a(xenos.o)
                0x0000000080030808                ana_vga_640x480
 .data.ana_vga_640x480_corona
                0x0000000080030c08      0x400 /usr/local/xenon/usr/lib/libxenon.a(xenos.o)
                0x0000000080030c08                ana_vga_640x480_corona
 .data.ana_yuv_480p
                0x0000000080031008      0x400 /usr/local/xenon/usr/lib/libxenon.a(xenos.o)
                0x0000000080031008                ana_yuv_480p
 .data.ana_yuv_480p_corona
                0x0000000080031408      0x400 /usr/local/xenon/usr/lib/libxenon.a(xenos.o)
                0x0000000080031408                ana_yuv_480p_corona
 .data.ana_yuv_720p
                0x0000000080031808      0x400 /usr/local/xenon/usr/lib/libxenon.a(xenos.o)
                0x0000000080031808                ana_yuv_720p
 .data.ana_yuv_720p_corona
                0x0000000080031c08      0x400 /usr/local/xenon/usr/lib/libxenon.a(xenos.o)
                0x0000000080031c08                ana_yuv_720p_corona
 .data.xenos_modes
                0x0000000080032008      0x30c /usr/local/xenon/usr/lib/libxenon.a(xenos.o)
                0x0000000080032008                xenos_modes
 .data.xenos_modes_corona
                0x0000000080032314      0x30c /usr/local/xenon/usr/lib/libxenon.a(xenos.o)
                0x0000000080032314                xenos_modes_corona
 .data.ohci_driver
                0x0000000080032620       0x2c /usr/local/xenon/usr/lib/libxenon.a(ohci.o)
                0x0000000080032620                ohci_driver
 .data.usb_drivers
                0x000000008003264c       0xa0 /usr/local/xenon/usr/lib/libxenon.a(usbdevs.o)
                0x000000008003264c                usb_drivers
 .data.usbhid_driver
                0x00000000800326ec        0xc /usr/local/xenon/usr/lib/libxenon.a(usbhid.o)
                0x00000000800326ec                usbhid_driver
 .data.usbhid_scantable
                0x00000000800326f8      0x650 /usr/local/xenon/usr/lib/libxenon.a(usbhid.o)
 .data.usbhub_driver
                0x0000000080032d48        0xc /usr/local/xenon/usr/lib/libxenon.a(usbhub.o)
                0x0000000080032d48                usbhub_driver
 .data.usbroothub_driver
                0x0000000080032d54        0xc /usr/local/xenon/usr/lib/libxenon.a(usbhub.o)
                0x0000000080032d54                usbroothub_driver
 .data.dummy_driver
                0x0000000080032d60        0xc /usr/local/xenon/usr/lib/libxenon.a(dummy.o)
                0x0000000080032d60                dummy_driver
 .data.usbctrl_driver
                0x0000000080032d6c        0xc /usr/local/xenon/usr/lib/libxenon.a(usbctrl.o)
                0x0000000080032d6c                usbctrl_driver
 .data          0x0000000080032d78      0x428 /usr/local/xenon/xenon/lib/32/libc.a(lib_a-impure.o)
 .data          0x00000000800331a0      0x16c /usr/local/xenon/xenon/lib/32/libc.a(lib_a-locale.o)
                0x00000000800331a0                __global_locale
 .data          0x000000008003330c      0x408 /usr/local/xenon/xenon/lib/32/libc.a(lib_a-mallocr.o)
                0x000000008003330c                __malloc_av_
 *fill*         0x0000000080033714        0x4 
 .data          0x0000000080033718       0x58 /usr/local/xenon/xenon/lib/32/libc.a(lib_a-gettzinfo.o)

.branch_lt      0x0000000080033770        0x0
 .branch_lt     0x0000000080033770        0x0 /usr/local/xenon/usr/lib/libxenon.a(xenon_syscalls.o)

.got2           0x0000000080033770       0x18
 .got2          0x0000000080033770       0x18 /usr/local/xenon/lib/gcc/xenon/9.2.0/32/libgcc.a(unwind-dw2-fde-dip.o)

.sdata          0x0000000080033788       0x38
 *(.sdata*)
 .sdata         0x0000000080033788        0x4 /usr/local/xenon/usr/lib/libxenon.a(startup_from_xell.o)
                0x0000000080033788                __system_argv
 *fill*         0x000000008003378c        0x4 
 .sdata.DIRECTORY_PARENT
                0x0000000080033790        0x3 /usr/local/xenon/usr/lib/libxenon.a(newlib.o)
                0x0000000080033790                DIRECTORY_PARENT
 .sdata         0x0000000080033793        0x0 /usr/local/xenon/usr/lib/libxenon.a(xenon_syscalls.o)
                0x000000008003b793                _SDA_BASE_
 .sdata2        0x0000000080033793        0x0 /usr/local/xenon/usr/lib/libxenon.a(xenon_syscalls.o)
                0x000000008003b793                _SDA2_BASE_
 *fill*         0x0000000080033793        0x1 
 .sdata.usb_timeout
                0x0000000080033794        0x4 /usr/local/xenon/usr/lib/libxenon.a(tinyehci.o)
                0x0000000080033794                usb_timeout
 .sdata.xenon_smc_last_ir
                0x0000000080033798        0x4 /usr/local/xenon/usr/lib/libxenon.a(xenon_smc.o)
                0x0000000080033798                xenon_smc_last_ir
 .sdata.console_color
                0x000000008003379c        0x8 /usr/local/xenon/usr/lib/libxenon.a(console.o)
                0x000000008003379c                console_color
 .sdata         0x00000000800337a4        0x8 /usr/local/xenon/xenon/lib/32/libc.a(lib_a-impure.o)
                0x00000000800337a4                _global_impure_ptr
                0x00000000800337a8                _impure_ptr
 .sdata         0x00000000800337ac        0x8 /usr/local/xenon/xenon/lib/32/libc.a(lib_a-mallocr.o)
                0x00000000800337ac                __malloc_sbrk_base
                0x00000000800337b0                __malloc_trim_threshold
 .sdata         0x00000000800337b4        0x8 /usr/local/xenon/xenon/lib/32/libc.a(lib_a-tzvars.o)
                0x00000000800337b4                _tzname
 .sdata         0x00000000800337bc        0x4 /usr/local/xenon/xenon/lib/32/libc.a(lib_a-environ.o)
                0x00000000800337bc                environ

.rodata         0x00000000800337c0     0x3c0e
 *(.rodata*)
 .rodata.str1.8
                0x00000000800337c0      0x140 main.o
                                        0x13b (size before relaxing)
 .rodata.xenon_ata_dma_read.str1.1
                0x0000000080033900       0x61 /usr/local/xenon/usr/lib/libxenon.a(ata.o)
 .rodata.xenon_ata_identify.str1.1
                0x0000000080033961       0xae /usr/local/xenon/usr/lib/libxenon.a(ata.o)
 .rodata.xenon_ata_setaddress.constprop.0.str1.1
                0x0000000080033a0f       0x34 /usr/local/xenon/usr/lib/libxenon.a(ata.o)
 .rodata.ata_readsectors.str1.1
                0x0000000080033a43       0x13 /usr/local/xenon/usr/lib/libxenon.a(ata.o)
 .rodata.ata_writesectors.str1.1
                0x0000000080033a56       0x10 /usr/local/xenon/usr/lib/libxenon.a(ata.o)
 .rodata.xenon_ata_init1.str1.1
                0x0000000080033a66       0x2f /usr/local/xenon/usr/lib/libxenon.a(ata.o)
 .rodata        0x0000000080033a95       0x3c /usr/local/xenon/usr/lib/libxenon.a(ata.o)
 *fill*         0x0000000080033ad1        0x7 
 .rodata.__func__.4226
                0x0000000080033ad8       0x13 /usr/local/xenon/usr/lib/libxenon.a(ata.o)
 .rodata.abort.str1.1
                0x0000000080033aeb        0xf /usr/local/xenon/usr/lib/libxenon.a(newlib.o)
 .rodata.AddDevice.str1.1
                0x0000000080033afa        0x8 /usr/local/xenon/usr/lib/libxenon.a(newlib.o)
 .rodata.bdev_enum.str1.1
                0x0000000080033b02        0x4 /usr/local/xenon/usr/lib/libxenon.a(newlib.o)
 .rodata.str1.1
                0x0000000080033b06        0x7 /usr/local/xenon/usr/lib/libxenon.a(newlib.o)
 *fill*         0x0000000080033b0d        0x3 
 .rodata.console_optab
                0x0000000080033b10       0x64 /usr/local/xenon/usr/lib/libxenon.a(newlib.o)
                0x0000000080033b10                console_optab
 .rodata.dotab_stdnull
                0x0000000080033b74       0x64 /usr/local/xenon/usr/lib/libxenon.a(newlib.o)
                0x0000000080033b74                dotab_stdnull
 .rodata.xenon_malloc_unlock.str1.1
                0x0000000080033bd8       0x40 /usr/local/xenon/usr/lib/libxenon.a(xenon_syscalls.o)
 .rodata.xenon_malloc_lock.str1.1
                0x0000000080033c18        0x9 /usr/local/xenon/usr/lib/libxenon.a(xenon_syscalls.o)
 .rodata.try_return_to_xell.str1.1
                0x0000000080033c21       0x11 /usr/local/xenon/usr/lib/libxenon.a(xenon_syscalls.o)
 .rodata.xenon_exit.str1.1
                0x0000000080033c32       0x93 /usr/local/xenon/usr/lib/libxenon.a(xenon_syscalls.o)
 *fill*         0x0000000080033cc5        0x3 
 .rodata.__func__.5047
                0x0000000080033cc8       0x12 /usr/local/xenon/usr/lib/libxenon.a(xenon_syscalls.o)
 *fill*         0x0000000080033cda        0x6 
 .rodata.__func__.5053
                0x0000000080033ce0       0x14 /usr/local/xenon/usr/lib/libxenon.a(xenon_syscalls.o)
 .rodata.crashdump.str1.1
                0x0000000080033cf4       0xf7 /usr/local/xenon/usr/lib/libxenon.a(c_except.o)
                                         0xfb (size before relaxing)
 .rodata.usb_init_one_ohci.str1.1
                0x0000000080033deb       0x75 /usr/local/xenon/usr/lib/libxenon.a(usbmain.o)
 .rodata.usb_init.str1.1
                0x0000000080033e60       0x5a /usr/local/xenon/usr/lib/libxenon.a(usbmain.o)
 .rodata.ehci_reset_usb_port.str1.1
                0x0000000080033eba       0x33 /usr/local/xenon/usr/lib/libxenon.a(tinyehci.o)
 .rodata.EHCI_do_one.str1.1
                0x0000000080033eed       0x20 /usr/local/xenon/usr/lib/libxenon.a(tinyehci.o)
 .rodata.USBStorage_Init.str1.1
                0x0000000080033f0d       0x47 /usr/local/xenon/usr/lib/libxenon.a(tinyehci.o)
 .rodata.xenon_smc_handle_bulk.str1.1
                0x0000000080033f54       0x46 /usr/local/xenon/usr/lib/libxenon.a(xenon_smc.o)
 .rodata.xenon_smc_ana_write.str1.1
                0x0000000080033f9a       0x2f /usr/local/xenon/usr/lib/libxenon.a(xenon_smc.o)
 .rodata.xenon_smc_ana_read.str1.1
                0x0000000080033fc9       0x2e /usr/local/xenon/usr/lib/libxenon.a(xenon_smc.o)
 .rodata.xenon_smc_i2c_ddc_lock.str1.1
                0x0000000080033ff7       0x27 /usr/local/xenon/usr/lib/libxenon.a(xenon_smc.o)
 .rodata.xenon_smc_i2c_write.str1.1
                0x000000008003401e       0x2f /usr/local/xenon/usr/lib/libxenon.a(xenon_smc.o)
 .rodata.xenon_smc_i2c_read.str1.1
                0x000000008003404d       0x2e /usr/local/xenon/usr/lib/libxenon.a(xenon_smc.o)
 .rodata.xenon_set_speed.str1.1
                0x000000008003407b       0x42 /usr/local/xenon/usr/lib/libxenon.a(xenon_power.o)
 .rodata.xenon_make_it_faster.str1.1
                0x00000000800340bd       0x7e /usr/local/xenon/usr/lib/libxenon.a(xenon_power.o)
 .rodata.sfcx_read_page.str1.1
                0x000000008003413b       0x96 /usr/local/xenon/usr/lib/libxenon.a(xenon_sfcx.o)
 .rodata.rawflash_writeImage.str1.1
                0x00000000800341d1      0x121 /usr/local/xenon/usr/lib/libxenon.a(xenon_sfcx.o)
                                        0x123 (size before relaxing)
 .rodata.rawflash_readImage.str1.1
                0x00000000800342f2       0x4d /usr/local/xenon/usr/lib/libxenon.a(xenon_sfcx.o)
                                         0x50 (size before relaxing)
 .rodata.sfcx_init.str1.1
                0x000000008003433f       0x7e /usr/local/xenon/usr/lib/libxenon.a(xenon_sfcx.o)
 *fill*         0x00000000800343bd        0x3 
 .rodata.cst4   0x00000000800343c0        0x4 /usr/local/xenon/usr/lib/libxenon.a(xenon_sfcx.o)
 .rodata.xenon_config_init.str1.1
                0x00000000800343c4       0x20 /usr/local/xenon/usr/lib/libxenon.a(xenon_config.o)
 .rodata.xenon_config_get_avregion.str1.1
                0x00000000800343e4       0x20 /usr/local/xenon/usr/lib/libxenon.a(xenon_config.o)
 .rodata.xenos_ana_write.str1.1
                0x0000000080034404       0x33 /usr/local/xenon/usr/lib/libxenon.a(xenos.o)
 .rodata.xenos_init_ana_new.str1.1
                0x0000000080034437       0xf5 /usr/local/xenon/usr/lib/libxenon.a(xenos.o)
 .rodata.xenos_init_phase1.str1.1
                0x000000008003452c       0x85 /usr/local/xenon/usr/lib/libxenon.a(xenos.o)
 .rodata.xenos_set_mode.str1.1
                0x00000000800345b1       0x29 /usr/local/xenon/usr/lib/libxenon.a(xenos.o)
 .rodata.xenos_autoset_mode.str1.1
                0x00000000800345da       0x17 /usr/local/xenon/usr/lib/libxenon.a(xenos.o)
 *fill*         0x00000000800345f1        0x3 
 .rodata.xenos_autoset_mode
                0x00000000800345f4       0x50 /usr/local/xenon/usr/lib/libxenon.a(xenos.o)
 .rodata.xenos_init.str1.1
                0x0000000080034644       0x3a /usr/local/xenon/usr/lib/libxenon.a(xenos.o)
 .rodata.xenos_is_overscan.str1.1
                0x000000008003467e       0x16 /usr/local/xenon/usr/lib/libxenon.a(xenos.o)
 .rodata.str1.1
                0x0000000080034694       0x94 /usr/local/xenon/usr/lib/libxenon.a(xenos.o)
 .rodata        0x0000000080034728      0x140 /usr/local/xenon/usr/lib/libxenon.a(xenos.o)
 .rodata.CSWTCH.64
                0x0000000080034868        0x4 /usr/local/xenon/usr/lib/libxenon.a(xenos.o)
 *fill*         0x000000008003486c        0x4 
 .rodata.__func__.4758
                0x0000000080034870       0x12 /usr/local/xenon/usr/lib/libxenon.a(xenos.o)
 .rodata.xenos_ddc_read_edid.str1.1
                0x0000000080034882       0xa5 /usr/local/xenon/usr/lib/libxenon.a(xenos_edid.o)
 .rodata.xenos_get_edid.str1.1
                0x0000000080034927       0x61 /usr/local/xenon/usr/lib/libxenon.a(xenos_edid.o)
 .rodata.edid_header
                0x0000000080034988        0x8 /usr/local/xenon/usr/lib/libxenon.a(xenos_edid.o)
 .rodata.console_init.str1.1
                0x0000000080034990       0x33 /usr/local/xenon/usr/lib/libxenon.a(console.o)
 *fill*         0x00000000800349c3        0x5 
 .rodata.fontdata_8x16
                0x00000000800349c8     0x1000 /usr/local/xenon/usr/lib/libxenon.a(console.o)
                0x00000000800349c8                fontdata_8x16
 .rodata.lib_outofmemory.str1.1
                0x00000000800359c8       0x16 /usr/local/xenon/usr/lib/libxenon.a(lib_malloc.o)
 .rodata.kmem_init.str1.1
                0x00000000800359de       0x35 /usr/local/xenon/usr/lib/libxenon.a(lib_malloc.o)
 .rodata.ohci_xfer.str1.1
                0x0000000080035a13       0x11 /usr/local/xenon/usr/lib/libxenon.a(ohci.o)
 .rodata.ohci_xfer
                0x0000000080035a24       0x50 /usr/local/xenon/usr/lib/libxenon.a(ohci.o)
 .rodata.ohci_revbits
                0x0000000080035a74       0x80 /usr/local/xenon/usr/lib/libxenon.a(ohci.o)
 .rodata.ohci_root_cfgdsc
                0x0000000080035af4        0x9 /usr/local/xenon/usr/lib/libxenon.a(ohci.o)
 .rodata.ohci_root_devdsc
                0x0000000080035afd       0x12 /usr/local/xenon/usr/lib/libxenon.a(ohci.o)
 .rodata.ohci_root_epdsc
                0x0000000080035b0f        0x7 /usr/local/xenon/usr/lib/libxenon.a(ohci.o)
 .rodata.ohci_root_hubdsc
                0x0000000080035b16       0x47 /usr/local/xenon/usr/lib/libxenon.a(ohci.o)
 .rodata.ohci_root_ifdsc
                0x0000000080035b5d        0x9 /usr/local/xenon/usr/lib/libxenon.a(ohci.o)
 .rodata.usb_create_pipe.str1.1
                0x0000000080035b66       0x32 /usr/local/xenon/usr/lib/libxenon.a(usbd.o)
 .rodata.usb_free_request.str1.1
                0x0000000080035b98       0x34 /usr/local/xenon/usr/lib/libxenon.a(usbd.o)
 .rodata.usb_initroot.str1.1
                0x0000000080035bcc       0x73 /usr/local/xenon/usr/lib/libxenon.a(usbd.o)
 .rodata.usb_find_driver.str1.1
                0x0000000080035c3f       0x5a /usr/local/xenon/usr/lib/libxenon.a(usbdevs.o)
 .rodata.usbhid_attach.str1.1
                0x0000000080035c99       0x19 /usr/local/xenon/usr/lib/libxenon.a(usbhid.o)
 .rodata.usbhid_ireq_callback.str1.1
                0x0000000080035cb2        0x3 /usr/local/xenon/usr/lib/libxenon.a(usbhid.o)
 .rodata.str1.1
                0x0000000080035cb5       0x2e /usr/local/xenon/usr/lib/libxenon.a(usbhid.o)
 *fill*         0x0000000080035ce3        0x1 
 .rodata.usbhid_devtypes
                0x0000000080035ce4        0xc /usr/local/xenon/usr/lib/libxenon.a(usbhid.o)
 .rodata.usbhub_detach.str1.1
                0x0000000080035cf0       0x76 /usr/local/xenon/usr/lib/libxenon.a(usbhub.o)
 .rodata.usbhub_scan1.str1.1
                0x0000000080035d66      0x176 /usr/local/xenon/usr/lib/libxenon.a(usbhub.o)
 .rodata.str1.1
                0x0000000080035edc        0x8 /usr/local/xenon/usr/lib/libxenon.a(usbhub.o)
                                         0x11 (size before relaxing)
 .rodata.str1.1
                0x0000000080035ee4        0xd /usr/local/xenon/usr/lib/libxenon.a(dummy.o)
 .rodata.usbctrl_detach.str1.1
                0x0000000080035ef1       0x42 /usr/local/xenon/usr/lib/libxenon.a(usbctrl.o)
 .rodata.usbctrl_set_leds.str1.1
                0x0000000080035f33       0x16 /usr/local/xenon/usr/lib/libxenon.a(usbctrl.o)
 .rodata.usbctrl_attach.str1.1
                0x0000000080035f49       0x5f /usr/local/xenon/usr/lib/libxenon.a(usbctrl.o)
 .rodata.str1.1
                0x0000000080035fa8       0x14 /usr/local/xenon/usr/lib/libxenon.a(usbctrl.o)
 .rodata        0x0000000080035fbc        0xc /usr/local/xenon/usr/lib/libxenon.a(usbctrl.o)
 .rodata.getstringmaybe.str1.1
                0x0000000080035fc8       0x14 /usr/local/xenon/usr/lib/libxenon.a(usbdebug.o)
                                          0x1 (size before relaxing)
 .rodata.usb_dbg_dumpportstatus.str1.1
                0x0000000080035fc8       0xd8 /usr/local/xenon/usr/lib/libxenon.a(usbdebug.o)
                                         0xdb (size before relaxing)
 .rodata.usb_dbg_dumpdescriptors.str1.1
                0x00000000800360a0      0x4a8 /usr/local/xenon/usr/lib/libxenon.a(usbdebug.o)
 .rodata.str1.1
                0x0000000080036548       0x1c /usr/local/xenon/usr/lib/libxenon.a(usbdebug.o)
 .rodata.eptattribs.4397
                0x0000000080036564       0x10 /usr/local/xenon/usr/lib/libxenon.a(usbdebug.o)
 .rodata.str1.1
                0x0000000080036574       0x1e /usr/local/xenon/usr/lib/libfat.a(libfat.o)
                                         0x20 (size before relaxing)
 *fill*         0x0000000080036592        0x2 
 .rodata        0x0000000080036594       0x64 /usr/local/xenon/usr/lib/libfat.a(libfat.o)
 .rodata        0x00000000800365f8       0x14 /usr/local/xenon/usr/lib/libfat.a(partition.o)
 .rodata.str1.1
                0x000000008003660c       0x1e /usr/local/xenon/usr/lib/libfat.a(directory.o)
                                          0x5 (size before relaxing)
 *fill*         0x000000008003660c        0x4 
 .rodata        0x0000000080036610       0x5a /usr/local/xenon/usr/lib/libfat.a(directory.o)
 .rodata.str1.1
                0x000000008003666a       0x10 /usr/local/xenon/usr/lib/libfat.a(disc.o)
 *fill*         0x000000008003667a        0x2 
 .rodata        0x000000008003667c       0x28 /usr/local/xenon/usr/lib/libfat.a(disc.o)
                0x000000008003667c                _FAT_disc_interfaces
 .rodata.str1.1
                0x00000000800366a4        0x5 /usr/local/xenon/usr/lib/libfat.a(fatdir.o)
 *fill*         0x00000000800366a9        0x3 
 .rodata        0x00000000800366ac       0x3c /usr/local/xenon/lib/gcc/xenon/9.2.0/32/libgcc.a(unwind-dw2-fde-dip.o)
 .rodata.str1.4
                0x00000000800366e8       0x3f /usr/local/xenon/xenon/lib/32/libc.a(lib_a-assert.o)
                                         0x43 (size before relaxing)
 *fill*         0x0000000080036727        0x1 
 .rodata        0x0000000080036728      0x101 /usr/local/xenon/xenon/lib/32/libc.a(lib_a-ctype_.o)
                0x0000000080036728                _ctype_
 *fill*         0x0000000080036829        0x3 
 .rodata.str1.4
                0x000000008003682c        0xe /usr/local/xenon/xenon/lib/32/libc.a(lib_a-locale.o)
                                         0x12 (size before relaxing)
 .rodata.str1.4
                0x000000008003683a        0x1 /usr/local/xenon/xenon/lib/32/libc.a(lib_a-mbrtowc.o)
 *fill*         0x000000008003683a        0x2 
 .rodata        0x000000008003683c       0x60 /usr/local/xenon/xenon/lib/32/libc.a(lib_a-mktime.o)
 .rodata        0x000000008003689c       0x60 /usr/local/xenon/xenon/lib/32/libc.a(lib_a-month_lengths.o)
                0x000000008003689c                __month_lengths
 .rodata.str1.4
                0x00000000800368fc        0x2 /usr/local/xenon/xenon/lib/32/libc.a(lib_a-puts.o)
 *fill*         0x00000000800368fe        0x2 
 .rodata.str1.4
                0x0000000080036900       0x42 /usr/local/xenon/xenon/lib/32/libc.a(lib_a-svfprintf.o)
 *fill*         0x0000000080036942        0x2 
 .rodata        0x0000000080036944      0x184 /usr/local/xenon/xenon/lib/32/libc.a(lib_a-svfprintf.o)
 .rodata.cst4   0x0000000080036ac8        0x4 /usr/local/xenon/xenon/lib/32/libc.a(lib_a-svfprintf.o)
 *fill*         0x0000000080036acc        0x4 
 .rodata.cst8   0x0000000080036ad0        0x8 /usr/local/xenon/xenon/lib/32/libc.a(lib_a-svfprintf.o)
 .rodata.str1.4
                0x0000000080036ad8       0x53 /usr/local/xenon/xenon/lib/32/libc.a(lib_a-tzset_r.o)
 .rodata.str1.4
                0x0000000080036b2b        0x4 /usr/local/xenon/xenon/lib/32/libc.a(lib_a-tzvars.o)
 .rodata.str1.4
                0x0000000080036b2b       0x2f /usr/local/xenon/xenon/lib/32/libc.a(lib_a-vfiprintf.o)
 *fill*         0x0000000080036b2b        0x1 
 .rodata        0x0000000080036b2c      0x184 /usr/local/xenon/xenon/lib/32/libc.a(lib_a-vfiprintf.o)
 .rodata.str1.4
                0x0000000080036cb0       0x42 /usr/local/xenon/xenon/lib/32/libc.a(lib_a-vfprintf.o)
 .rodata        0x0000000080036cb0      0x184 /usr/local/xenon/xenon/lib/32/libc.a(lib_a-vfprintf.o)
 .rodata.cst4   0x0000000080036e34        0x4 /usr/local/xenon/xenon/lib/32/libc.a(lib_a-vfprintf.o)
 .rodata.cst8   0x0000000080036e34        0x8 /usr/local/xenon/xenon/lib/32/libc.a(lib_a-vfprintf.o)
 .rodata.str1.4
                0x0000000080036e34       0x10 /usr/local/xenon/xenon/lib/32/libc.a(lib_a-dtoa.o)
                                         0x12 (size before relaxing)
 .rodata.cst4   0x0000000080036e44       0x18 /usr/local/xenon/xenon/lib/32/libc.a(lib_a-dtoa.o)
                                         0x1c (size before relaxing)
 *fill*         0x0000000080036e5c        0x4 
 .rodata.cst8   0x0000000080036e60       0x18 /usr/local/xenon/xenon/lib/32/libc.a(lib_a-dtoa.o)
 .rodata.cst4   0x0000000080036e78        0x8 /usr/local/xenon/xenon/lib/32/libc.a(lib_a-mprec.o)
 .rodata        0x0000000080036e78      0x128 /usr/local/xenon/xenon/lib/32/libc.a(lib_a-mprec.o)
                0x0000000080036e88                __mprec_tens
                0x0000000080036f50                __mprec_tinytens
                0x0000000080036f78                __mprec_bigtens
 .rodata.str1.4
                0x0000000080036fa0       0x2f /usr/local/xenon/xenon/lib/32/libc.a(lib_a-svfiprintf.o)
 .rodata        0x0000000080036fa0      0x184 /usr/local/xenon/xenon/lib/32/libc.a(lib_a-svfiprintf.o)
 .rodata        0x0000000080037124      0x2aa /usr/local/xenon/xenon/lib/32/libc.a(lib_a-svfiscanf.o)

.ctors          0x00000000800373ce        0x0
                0x00000000800373ce                __CTOR_LIST__ = .
 *(.ctors)
                0x00000000800373ce                __CTOR_END__ = .

.dtors          0x00000000800373ce        0x0
                0x00000000800373ce                __DTOR_LIST__ = .
 *(.dtors)
                0x00000000800373ce                __DTOR_END__ = .

.eh_frame_hdr   0x00000000800373d0     0x1344
 *(.eh_frame_hdr)
 .eh_frame_hdr  0x00000000800373d0     0x1344 /usr/local/xenon/lib/gcc/xenon/9.2.0/../../../../xenon/lib/../lib/crt1.o
                0x00000000800373d0                __GNU_EH_FRAME_HDR

.eh_frame       0x0000000080038714     0x6b14
                0x0000000080038714                PROVIDE (__eh_frame_start = .)
 *(.eh_frame)
 .eh_frame      0x0000000080038714       0x6c /usr/local/xenon/lib/gcc/xenon/9.2.0/../../../../xenon/lib/../lib/crt1.o
 .eh_frame      0x0000000080038780      0x144 main.o
                                        0x158 (size before relaxing)
 .eh_frame      0x00000000800388c4       0x14 /usr/local/xenon/usr/lib/libxenon.a(argv.o)
                                         0x28 (size before relaxing)
 .eh_frame      0x00000000800388d8      0x210 /usr/local/xenon/usr/lib/libxenon.a(ata.o)
                                        0x304 (size before relaxing)
 .eh_frame      0x0000000080038ae8      0x3ac /usr/local/xenon/usr/lib/libxenon.a(newlib.o)
                                        0x9e0 (size before relaxing)
 .eh_frame      0x0000000080038e94      0x114 /usr/local/xenon/usr/lib/libxenon.a(xenon_syscalls.o)
                                        0x128 (size before relaxing)
 .eh_frame      0x0000000080038fa8        0x0 /usr/local/xenon/usr/lib/libxenon.a(xenon_syscalls.o)
 .eh_frame      0x0000000080038fa8       0x58 /usr/local/xenon/usr/lib/libxenon.a(c_except.o)
                                         0x6c (size before relaxing)
 .eh_frame      0x0000000080039000        0x0 /usr/local/xenon/usr/lib/libxenon.a(vm.o)
                                         0xc0 (size before relaxing)
 .eh_frame      0x0000000080039000       0x50 /usr/local/xenon/usr/lib/libxenon.a(time.o)
                                         0x64 (size before relaxing)
 .eh_frame      0x0000000080039050       0xac /usr/local/xenon/usr/lib/libxenon.a(usbmain.o)
                                         0xc0 (size before relaxing)
 .eh_frame      0x00000000800390fc      0x8e8 /usr/local/xenon/usr/lib/libxenon.a(tinyehci.o)
                                        0xa20 (size before relaxing)
 .eh_frame      0x00000000800399e4       0x14 /usr/local/xenon/usr/lib/libxenon.a(debug.o)
                                         0xa8 (size before relaxing)
 .eh_frame      0x00000000800399f8      0x1e4 /usr/local/xenon/usr/lib/libxenon.a(xenon_smc.o)
                                        0x2b0 (size before relaxing)
 .eh_frame      0x0000000080039bdc      0x12c /usr/local/xenon/usr/lib/libxenon.a(xenon_power.o)
                                        0x17c (size before relaxing)
 .eh_frame      0x0000000080039d08       0x14 /usr/local/xenon/usr/lib/libxenon.a(xenon_secotp.o)
                                         0x28 (size before relaxing)
 .eh_frame      0x0000000080039d1c       0x80 /usr/local/xenon/usr/lib/libxenon.a(xenon_uart.o)
                                         0x94 (size before relaxing)
 .eh_frame      0x0000000080039d9c       0xf4 /usr/local/xenon/usr/lib/libxenon.a(xenon_sfcx.o)
                                        0x3b0 (size before relaxing)
 .eh_frame      0x0000000080039e90       0x78 /usr/local/xenon/usr/lib/libxenon.a(xenon_config.o)
                                         0xb0 (size before relaxing)
 .eh_frame      0x0000000080039f08      0x240 /usr/local/xenon/usr/lib/libxenon.a(xenos.o)
                                        0x254 (size before relaxing)
 .eh_frame      0x000000008003a148       0xa0 /usr/local/xenon/usr/lib/libxenon.a(xenos_edid.o)
                                         0xb4 (size before relaxing)
 .eh_frame      0x000000008003a1e8       0x20 /usr/local/xenon/usr/lib/libxenon.a(enet.o)
                                        0x138 (size before relaxing)
 .eh_frame      0x000000008003a208       0xc8 /usr/local/xenon/usr/lib/libxenon.a(xb360.o)
                                        0x388 (size before relaxing)
 .eh_frame      0x000000008003a2d0      0x10c /usr/local/xenon/usr/lib/libxenon.a(console.o)
                                        0x174 (size before relaxing)
 .eh_frame      0x000000008003a3dc       0x60 /usr/local/xenon/usr/lib/libxenon.a(lib_malloc.o)
                                         0xc4 (size before relaxing)
 .eh_frame      0x000000008003a43c       0x50 /usr/local/xenon/usr/lib/libxenon.a(io.o)
                                         0x64 (size before relaxing)
 .eh_frame      0x000000008003a48c      0x228 /usr/local/xenon/usr/lib/libxenon.a(ohci.o)
                                        0x23c (size before relaxing)
 .eh_frame      0x000000008003a6b4      0x3b8 /usr/local/xenon/usr/lib/libxenon.a(usbd.o)
                                        0x434 (size before relaxing)
 .eh_frame      0x000000008003aa6c       0x30 /usr/local/xenon/usr/lib/libxenon.a(usbdevs.o)
                                         0x44 (size before relaxing)
 .eh_frame      0x000000008003aa9c       0x7c /usr/local/xenon/usr/lib/libxenon.a(usbhid.o)
                                         0x90 (size before relaxing)
 .eh_frame      0x000000008003ab18      0x180 /usr/local/xenon/usr/lib/libxenon.a(usbhub.o)
                                        0x1dc (size before relaxing)
 .eh_frame      0x000000008003ac98      0x12c /usr/local/xenon/usr/lib/libxenon.a(usb_os.o)
                                        0x140 (size before relaxing)
 .eh_frame      0x000000008003adc4       0x50 /usr/local/xenon/usr/lib/libxenon.a(xenon_gpio.o)
                                         0x8c (size before relaxing)
 .eh_frame      0x000000008003ae14        0x0 /usr/local/xenon/usr/lib/libxenon.a(mem.o)
                                         0xc8 (size before relaxing)
 .eh_frame      0x000000008003ae14        0x0 /usr/local/xenon/usr/lib/libxenon.a(pbuf.o)
                                        0x2d8 (size before relaxing)
 .eh_frame      0x000000008003ae14        0x0 /usr/local/xenon/usr/lib/libxenon.a(stats.o)
                                         0x28 (size before relaxing)
 .eh_frame      0x000000008003ae14        0x0 /usr/local/xenon/usr/lib/libxenon.a(etharp.o)
                                        0x224 (size before relaxing)
 .eh_frame      0x000000008003ae14        0x0 /usr/local/xenon/usr/lib/libxenon.a(dhcp.o)
                                        0x428 (size before relaxing)
 .eh_frame      0x000000008003ae14        0x0 /usr/local/xenon/usr/lib/libxenon.a(hmac_sha1.o)
                                        0x15c (size before relaxing)
 .eh_frame      0x000000008003ae14        0x0 /usr/local/xenon/usr/lib/libxenon.a(rc4.o)
                                         0x3c (size before relaxing)
 .eh_frame      0x000000008003ae14        0x0 /usr/local/xenon/usr/lib/libxenon.a(sha1.o)
                                         0xdc (size before relaxing)
 .eh_frame      0x000000008003ae14       0x28 /usr/local/xenon/usr/lib/libxenon.a(lib_queue.o)
                                         0xa8 (size before relaxing)
 .eh_frame      0x000000008003ae3c       0x28 /usr/local/xenon/usr/lib/libxenon.a(dummy.o)
                                         0x3c (size before relaxing)
 .eh_frame      0x000000008003ae64      0x138 /usr/local/xenon/usr/lib/libxenon.a(usbctrl.o)
                                        0x178 (size before relaxing)
 .eh_frame      0x000000008003af9c       0x98 /usr/local/xenon/usr/lib/libxenon.a(usbdebug.o)
                                        0x110 (size before relaxing)
 .eh_frame      0x000000008003b034        0x0 /usr/local/xenon/usr/lib/libxenon.a(dns.o)
                                        0x16c (size before relaxing)
 .eh_frame      0x000000008003b034        0x0 /usr/local/xenon/usr/lib/libxenon.a(memp.o)
                                         0x6c (size before relaxing)
 .eh_frame      0x000000008003b034        0x0 /usr/local/xenon/usr/lib/libxenon.a(netif.o)
                                        0x1c0 (size before relaxing)
 .eh_frame      0x000000008003b034        0x0 /usr/local/xenon/usr/lib/libxenon.a(tcp.o)
                                        0x45c (size before relaxing)
 .eh_frame      0x000000008003b034        0x0 /usr/local/xenon/usr/lib/libxenon.a(ip_addr.o)
                                         0xc8 (size before relaxing)
 .eh_frame      0x000000008003b034        0x0 /usr/local/xenon/usr/lib/libxenon.a(ip.o)
                                         0xd4 (size before relaxing)
 .eh_frame      0x000000008003b034        0x0 /usr/local/xenon/usr/lib/libxenon.a(ip_frag.o)
                                        0x178 (size before relaxing)
 .eh_frame      0x000000008003b034        0x0 /usr/local/xenon/usr/lib/libxenon.a(tcp_out.o)
                                        0x2c0 (size before relaxing)
 .eh_frame      0x000000008003b034        0x0 /usr/local/xenon/usr/lib/libxenon.a(udp.o)
                                        0x194 (size before relaxing)
 .eh_frame      0x000000008003b034        0x0 /usr/local/xenon/usr/lib/libxenon.a(raw.o)
                                        0x104 (size before relaxing)
 .eh_frame      0x000000008003b034        0x0 /usr/local/xenon/usr/lib/libxenon.a(timers.o)
                                         0x28 (size before relaxing)
 .eh_frame      0x000000008003b034       0x20 /usr/local/xenon/usr/lib/libxenon.a(input.o)
                                         0x6c (size before relaxing)
 .eh_frame      0x000000008003b054        0x0 /usr/local/xenon/usr/lib/libxenon.a(tcp_in.o)
                                        0x12c (size before relaxing)
 .eh_frame      0x000000008003b054        0x0 /usr/local/xenon/usr/lib/libxenon.a(inet_chksum.o)
                                         0xec (size before relaxing)
 .eh_frame      0x000000008003b054        0x0 /usr/local/xenon/usr/lib/libxenon.a(icmp.o)
                                         0xb4 (size before relaxing)
 .eh_frame      0x000000008003b054       0xfc /usr/local/xenon/usr/lib/libfat.a(libfat.o)
                                        0x110 (size before relaxing)
 .eh_frame      0x000000008003b150      0x208 /usr/local/xenon/usr/lib/libfat.a(partition.o)
                                        0x21c (size before relaxing)
 .eh_frame      0x000000008003b358      0x260 /usr/local/xenon/usr/lib/libfat.a(cache.o)
                                        0x274 (size before relaxing)
 .eh_frame      0x000000008003b5b8      0x328 /usr/local/xenon/usr/lib/libfat.a(directory.o)
                                        0x33c (size before relaxing)
 .eh_frame      0x000000008003b8e0       0x50 /usr/local/xenon/usr/lib/libfat.a(disc.o)
                                         0x64 (size before relaxing)
 .eh_frame      0x000000008003b930      0x1e0 /usr/local/xenon/usr/lib/libfat.a(fatdir.o)
                                        0x1f4 (size before relaxing)
 .eh_frame      0x000000008003bb10      0x2ec /usr/local/xenon/usr/lib/libfat.a(fatfile.o)
                                        0x300 (size before relaxing)
 .eh_frame      0x000000008003bdfc      0x164 /usr/local/xenon/usr/lib/libfat.a(file_allocation_table.o)
                                        0x178 (size before relaxing)
 .eh_frame      0x000000008003bf60       0x68 /usr/local/xenon/usr/lib/libfat.a(filetime.o)
                                         0x7c (size before relaxing)
 .eh_frame      0x000000008003bfc8       0x50 /usr/local/xenon/usr/lib/libfat.a(lock.o)
                                         0x64 (size before relaxing)
 .eh_frame      0x000000008003c018       0x14 /usr/local/xenon/lib/gcc/xenon/9.2.0/32/libgcc.a(crtsavgpr.o)
                                         0x28 (size before relaxing)
 .eh_frame      0x000000008003c02c       0x7c /usr/local/xenon/lib/gcc/xenon/9.2.0/32/libgcc.a(crtresxgpr.o)
 .eh_frame      0x000000008003c0a8      0x6b0 /usr/local/xenon/lib/gcc/xenon/9.2.0/32/libgcc.a(unwind-dw2-fde-dip.o)
                                        0x6c4 (size before relaxing)
 .eh_frame      0x000000008003c758       0x34 /usr/local/xenon/xenon/lib/32/libc.a(lib_a-assert.o)
                                         0x48 (size before relaxing)
 .eh_frame      0x000000008003c78c        0x0 /usr/local/xenon/xenon/lib/32/libc.a(lib_a-errno.o)
                                         0x28 (size before relaxing)
 .eh_frame      0x000000008003c78c       0x20 /usr/local/xenon/xenon/lib/32/libc.a(lib_a-exit.o)
                                         0x34 (size before relaxing)
 .eh_frame      0x000000008003c7ac       0x6c /usr/local/xenon/xenon/lib/32/libc.a(lib_a-fclose.o)
                                         0x80 (size before relaxing)
 .eh_frame      0x000000008003c818       0xec /usr/local/xenon/xenon/lib/32/libc.a(lib_a-fflush.o)
                                        0x100 (size before relaxing)
 .eh_frame      0x000000008003c904      0x17c /usr/local/xenon/xenon/lib/32/libc.a(lib_a-findfp.o)
                                        0x190 (size before relaxing)
 .eh_frame      0x000000008003ca80       0x48 /usr/local/xenon/xenon/lib/32/libc.a(lib_a-fiprintf.o)
                                         0x5c (size before relaxing)
 .eh_frame      0x000000008003cac8       0x60 /usr/local/xenon/xenon/lib/32/libc.a(lib_a-fopen.o)
                                         0x74 (size before relaxing)
 .eh_frame      0x000000008003cb28        0x0 /usr/local/xenon/xenon/lib/32/libc.a(lib_a-fread.o)
                                         0xc4 (size before relaxing)
 .eh_frame      0x000000008003cb28       0x98 /usr/local/xenon/xenon/lib/32/libc.a(lib_a-freer.o)
                                         0xac (size before relaxing)
 .eh_frame      0x000000008003cbc0       0x28 /usr/local/xenon/xenon/lib/32/libc.a(lib_a-fseek.o)
                                         0x3c (size before relaxing)
 .eh_frame      0x000000008003cbe8       0x90 /usr/local/xenon/xenon/lib/32/libc.a(lib_a-fseeko.o)
                                         0xa4 (size before relaxing)
 .eh_frame      0x000000008003cc78       0x34 /usr/local/xenon/xenon/lib/32/libc.a(lib_a-fstatr.o)
                                         0x48 (size before relaxing)
 .eh_frame      0x000000008003ccac        0x0 /usr/local/xenon/xenon/lib/32/libc.a(lib_a-ftell.o)
                                         0x3c (size before relaxing)
 .eh_frame      0x000000008003ccac        0x0 /usr/local/xenon/xenon/lib/32/libc.a(lib_a-ftello.o)
                                         0x7c (size before relaxing)
 .eh_frame      0x000000008003ccac       0x6c /usr/local/xenon/xenon/lib/32/libc.a(lib_a-fwalk.o)
                                         0x80 (size before relaxing)
 .eh_frame      0x000000008003cd18       0x48 /usr/local/xenon/xenon/lib/32/libc.a(lib_a-fwrite.o)
                                         0x5c (size before relaxing)
 .eh_frame      0x000000008003cd60       0x44 /usr/local/xenon/xenon/lib/32/libc.a(lib_a-lcltime_r.o)
                                         0x58 (size before relaxing)
 .eh_frame      0x000000008003cda4       0x5c /usr/local/xenon/xenon/lib/32/libc.a(lib_a-locale.o)
                                         0x70 (size before relaxing)
 .eh_frame      0x000000008003ce00       0x94 /usr/local/xenon/xenon/lib/32/libc.a(lib_a-makebuf.o)
                                         0xa8 (size before relaxing)
 .eh_frame      0x000000008003ce94       0x14 /usr/local/xenon/xenon/lib/32/libc.a(lib_a-malign.o)
                                         0x28 (size before relaxing)
 .eh_frame      0x000000008003cea8       0x60 /usr/local/xenon/xenon/lib/32/libc.a(lib_a-malignr.o)
                                         0x74 (size before relaxing)
 .eh_frame      0x000000008003cf08       0x28 /usr/local/xenon/xenon/lib/32/libc.a(lib_a-malloc.o)
                                         0x3c (size before relaxing)
 .eh_frame      0x000000008003cf30       0xe8 /usr/local/xenon/xenon/lib/32/libc.a(lib_a-mallocr.o)
                                         0xfc (size before relaxing)
 .eh_frame      0x000000008003d018       0x68 /usr/local/xenon/xenon/lib/32/libc.a(lib_a-mbrtowc.o)
                                         0x7c (size before relaxing)
 .eh_frame      0x000000008003d080       0x28 /usr/local/xenon/xenon/lib/32/libc.a(lib_a-mbsrtowcs.o)
                                         0x3c (size before relaxing)
 .eh_frame      0x000000008003d0a8       0x34 /usr/local/xenon/xenon/lib/32/libc.a(lib_a-mbtowc_r.o)
                                         0x48 (size before relaxing)
 .eh_frame      0x000000008003d0dc       0x14 /usr/local/xenon/xenon/lib/32/libc.a(lib_a-memcmp.o)
                                         0x28 (size before relaxing)
 .eh_frame      0x000000008003d0f0       0x14 /usr/local/xenon/xenon/lib/32/libc.a(lib_a-memcpy.o)
                                         0x28 (size before relaxing)
 .eh_frame      0x000000008003d104       0x14 /usr/local/xenon/xenon/lib/32/libc.a(lib_a-memmove.o)
                                         0x28 (size before relaxing)
 .eh_frame      0x000000008003d118       0x14 /usr/local/xenon/xenon/lib/32/libc.a(lib_a-memset.o)
                                         0x28 (size before relaxing)
 .eh_frame      0x000000008003d12c       0x9c /usr/local/xenon/xenon/lib/32/libc.a(lib_a-mktime.o)
                                         0xb0 (size before relaxing)
 .eh_frame      0x000000008003d1c8       0x30 /usr/local/xenon/xenon/lib/32/libc.a(lib_a-openr.o)
                                         0x44 (size before relaxing)
 .eh_frame      0x000000008003d1f8       0x48 /usr/local/xenon/xenon/lib/32/libc.a(lib_a-printf.o)
                                         0x5c (size before relaxing)
 .eh_frame      0x000000008003d240       0x28 /usr/local/xenon/xenon/lib/32/libc.a(lib_a-putchar.o)
                                         0x3c (size before relaxing)
 .eh_frame      0x000000008003d268       0x40 /usr/local/xenon/xenon/lib/32/libc.a(lib_a-puts.o)
                                         0x54 (size before relaxing)
 .eh_frame      0x000000008003d2a8        0x0 /usr/local/xenon/xenon/lib/32/libc.a(lib_a-reent.o)
                                         0x78 (size before relaxing)
 .eh_frame      0x000000008003d2a8       0x7c /usr/local/xenon/xenon/lib/32/libc.a(lib_a-refill.o)
                                         0x90 (size before relaxing)
 .eh_frame      0x000000008003d324       0x34 /usr/local/xenon/xenon/lib/32/libc.a(lib_a-sbrkr.o)
                                         0x48 (size before relaxing)
 .eh_frame      0x000000008003d358       0x90 /usr/local/xenon/xenon/lib/32/libc.a(lib_a-snprintf.o)
                                         0xa4 (size before relaxing)
 .eh_frame      0x000000008003d3e8       0x50 /usr/local/xenon/xenon/lib/32/libc.a(lib_a-sprintf.o)
                                         0x64 (size before relaxing)
 .eh_frame      0x000000008003d438       0xc4 /usr/local/xenon/xenon/lib/32/libc.a(lib_a-stdio.o)
                                         0xd8 (size before relaxing)
 .eh_frame      0x000000008003d4fc       0x14 /usr/local/xenon/xenon/lib/32/libc.a(lib_a-stpcpy.o)
                                         0x28 (size before relaxing)
 .eh_frame      0x000000008003d510       0x24 /usr/local/xenon/xenon/lib/32/libc.a(lib_a-strcat.o)
                                         0x38 (size before relaxing)
 .eh_frame      0x000000008003d534       0x14 /usr/local/xenon/xenon/lib/32/libc.a(lib_a-strchr.o)
                                         0x28 (size before relaxing)
 .eh_frame      0x000000008003d548       0x14 /usr/local/xenon/xenon/lib/32/libc.a(lib_a-strcmp.o)
                                         0x28 (size before relaxing)
 .eh_frame      0x000000008003d55c       0x14 /usr/local/xenon/xenon/lib/32/libc.a(lib_a-strcpy.o)
                                         0x28 (size before relaxing)
 .eh_frame      0x000000008003d570       0x14 /usr/local/xenon/xenon/lib/32/libc.a(lib_a-strlen.o)
                                         0x28 (size before relaxing)
 .eh_frame      0x000000008003d584       0x14 /usr/local/xenon/xenon/lib/32/libc.a(lib_a-strncasecmp.o)
                                         0x28 (size before relaxing)
 .eh_frame      0x000000008003d598       0x14 /usr/local/xenon/xenon/lib/32/libc.a(lib_a-strncmp.o)
                                         0x28 (size before relaxing)
 .eh_frame      0x000000008003d5ac       0x14 /usr/local/xenon/xenon/lib/32/libc.a(lib_a-strncpy.o)
                                         0x28 (size before relaxing)
 .eh_frame      0x000000008003d5c0       0x14 /usr/local/xenon/xenon/lib/32/libc.a(lib_a-strnlen.o)
                                         0x28 (size before relaxing)
 .eh_frame      0x000000008003d5d4       0x14 /usr/local/xenon/xenon/lib/32/libc.a(lib_a-strpbrk.o)
                                         0x28 (size before relaxing)
 .eh_frame      0x000000008003d5e8       0x34 /usr/local/xenon/xenon/lib/32/libc.a(lib_a-strrchr.o)
                                         0x48 (size before relaxing)
 .eh_frame      0x000000008003d61c      0x12c /usr/local/xenon/xenon/lib/32/libc.a(lib_a-svfprintf.o)
                                        0x140 (size before relaxing)
 .eh_frame      0x000000008003d748       0x24 /usr/local/xenon/xenon/lib/32/libc.a(lib_a-time.o)
                                         0x38 (size before relaxing)
 .eh_frame      0x000000008003d76c       0x14 /usr/local/xenon/xenon/lib/32/libc.a(lib_a-towlower.o)
                                         0x28 (size before relaxing)
 .eh_frame      0x000000008003d780       0x14 /usr/local/xenon/xenon/lib/32/libc.a(lib_a-towupper.o)
                                         0x28 (size before relaxing)
 .eh_frame      0x000000008003d794       0x50 /usr/local/xenon/xenon/lib/32/libc.a(lib_a-tzcalc_limits.o)
                                         0x64 (size before relaxing)
 .eh_frame      0x000000008003d7e4       0x28 /usr/local/xenon/xenon/lib/32/libc.a(lib_a-tzlock.o)
                                         0x3c (size before relaxing)
 .eh_frame      0x000000008003d80c       0x38 /usr/local/xenon/xenon/lib/32/libc.a(lib_a-tzset.o)
                                         0x4c (size before relaxing)
 .eh_frame      0x000000008003d844      0x108 /usr/local/xenon/xenon/lib/32/libc.a(lib_a-tzset_r.o)
                                        0x11c (size before relaxing)
 .eh_frame      0x000000008003d94c      0x1cc /usr/local/xenon/xenon/lib/32/libc.a(lib_a-vfiprintf.o)
                                        0x1e0 (size before relaxing)
 .eh_frame      0x000000008003db18      0x174 /usr/local/xenon/xenon/lib/32/libc.a(lib_a-vfprintf.o)
                                        0x188 (size before relaxing)
 .eh_frame      0x000000008003dc8c       0x34 /usr/local/xenon/xenon/lib/32/libc.a(lib_a-vsprintf.o)
                                         0x48 (size before relaxing)
 .eh_frame      0x000000008003dcc0       0x68 /usr/local/xenon/xenon/lib/32/libc.a(lib_a-wcrtomb.o)
                                         0x7c (size before relaxing)
 .eh_frame      0x000000008003dd28       0x2c /usr/local/xenon/xenon/lib/32/libc.a(lib_a-wctob.o)
                                         0x40 (size before relaxing)
 .eh_frame      0x000000008003dd54       0x28 /usr/local/xenon/xenon/lib/32/libc.a(lib_a-wctomb_r.o)
                                         0x3c (size before relaxing)
 .eh_frame      0x000000008003dd7c       0x30 /usr/local/xenon/xenon/lib/32/libc.a(lib_a-writer.o)
                                         0x44 (size before relaxing)
 .eh_frame      0x000000008003ddac       0x44 /usr/local/xenon/xenon/lib/32/libc.a(lib_a-wsetup.o)
                                         0x58 (size before relaxing)
 .eh_frame      0x000000008003ddf0       0x74 /usr/local/xenon/xenon/lib/32/libc.a(lib_a-__call_atexit.o)
                                         0x88 (size before relaxing)
 .eh_frame      0x000000008003de64       0x34 /usr/local/xenon/xenon/lib/32/libc.a(lib_a-closer.o)
                                         0x48 (size before relaxing)
 .eh_frame      0x000000008003de98       0x14 /usr/local/xenon/xenon/lib/32/libc.a(lib_a-div.o)
                                         0x28 (size before relaxing)
 .eh_frame      0x000000008003deac      0x158 /usr/local/xenon/xenon/lib/32/libc.a(lib_a-dtoa.o)
                                        0x16c (size before relaxing)
 .eh_frame      0x000000008003e004       0x14 /usr/local/xenon/xenon/lib/32/libc.a(lib_a-flags.o)
                                         0x28 (size before relaxing)
 .eh_frame      0x000000008003e018       0x9c /usr/local/xenon/xenon/lib/32/libc.a(lib_a-fputwc.o)
                                         0xb0 (size before relaxing)
 .eh_frame      0x000000008003e0b4       0xec /usr/local/xenon/xenon/lib/32/libc.a(lib_a-fvwrite.o)
                                        0x100 (size before relaxing)
 .eh_frame      0x000000008003e1a0       0x94 /usr/local/xenon/xenon/lib/32/libc.a(lib_a-getenv_r.o)
                                         0xa8 (size before relaxing)
 .eh_frame      0x000000008003e234       0x34 /usr/local/xenon/xenon/lib/32/libc.a(lib_a-gettimeofdayr.o)
                                         0x48 (size before relaxing)
 .eh_frame      0x000000008003e268       0x14 /usr/local/xenon/xenon/lib/32/libc.a(lib_a-gettzinfo.o)
                                         0x28 (size before relaxing)
 .eh_frame      0x000000008003e27c       0x38 /usr/local/xenon/xenon/lib/32/libc.a(lib_a-gmtime_r.o)
                                         0x4c (size before relaxing)
 .eh_frame      0x000000008003e2b4       0x34 /usr/local/xenon/xenon/lib/32/libc.a(lib_a-isattyr.o)
                                         0x48 (size before relaxing)
 .eh_frame      0x000000008003e2e8       0x3c /usr/local/xenon/xenon/lib/32/libc.a(lib_a-localeconv.o)
                                         0x50 (size before relaxing)
 .eh_frame      0x000000008003e324       0x30 /usr/local/xenon/xenon/lib/32/libc.a(lib_a-lseekr.o)
                                         0x44 (size before relaxing)
 .eh_frame      0x000000008003e354       0xc4 /usr/local/xenon/xenon/lib/32/libc.a(lib_a-mbsnrtowcs.o)
                                         0xd8 (size before relaxing)
 .eh_frame      0x000000008003e418       0x14 /usr/local/xenon/xenon/lib/32/libc.a(lib_a-memchr.o)
                                         0x28 (size before relaxing)
 .eh_frame      0x000000008003e42c      0x37c /usr/local/xenon/xenon/lib/32/libc.a(lib_a-mprec.o)
                                        0x390 (size before relaxing)
 .eh_frame      0x000000008003e7a8       0x64 /usr/local/xenon/xenon/lib/32/libc.a(lib_a-putc.o)
                                         0x78 (size before relaxing)
 .eh_frame      0x000000008003e80c       0x30 /usr/local/xenon/xenon/lib/32/libc.a(lib_a-readr.o)
                                         0x44 (size before relaxing)
 .eh_frame      0x000000008003e83c      0x108 /usr/local/xenon/xenon/lib/32/libc.a(lib_a-reallocr.o)
                                        0x11c (size before relaxing)
 .eh_frame      0x000000008003e944       0x54 /usr/local/xenon/xenon/lib/32/libc.a(lib_a-siscanf.o)
                                         0x68 (size before relaxing)
 .eh_frame      0x000000008003e998       0x60 /usr/local/xenon/xenon/lib/32/libc.a(lib_a-strtoul.o)
                                         0x74 (size before relaxing)
 .eh_frame      0x000000008003e9f8      0x17c /usr/local/xenon/xenon/lib/32/libc.a(lib_a-svfiprintf.o)
                                        0x190 (size before relaxing)
 .eh_frame      0x000000008003eb74      0x278 /usr/local/xenon/xenon/lib/32/libc.a(lib_a-svfiscanf.o)
                                        0x28c (size before relaxing)
 .eh_frame      0x000000008003edec      0x10c /usr/local/xenon/xenon/lib/32/libc.a(lib_a-ungetc.o)
                                        0x120 (size before relaxing)
 .eh_frame      0x000000008003eef8       0x54 /usr/local/xenon/xenon/lib/32/libc.a(lib_a-wbuf.o)
                                         0x68 (size before relaxing)
 .eh_frame      0x000000008003ef4c       0x34 /usr/local/xenon/xenon/lib/32/libc.a(lib_a-callocr.o)
                                         0x48 (size before relaxing)
 .eh_frame      0x000000008003ef80       0x28 /usr/local/xenon/xenon/lib/32/libc.a(lib_a-envlock.o)
                                         0x3c (size before relaxing)
 .eh_frame      0x000000008003efa8       0x14 /usr/local/xenon/xenon/lib/32/libc.a(lib_a-iswspace.o)
                                         0x28 (size before relaxing)
 .eh_frame      0x000000008003efbc       0x14 /usr/local/xenon/xenon/lib/32/libc.a(lib_a-iswspace_l.o)
                                         0x28 (size before relaxing)
 .eh_frame      0x000000008003efd0       0x14 /usr/local/xenon/xenon/lib/32/libc.a(lib_a-sccl.o)
                                         0x28 (size before relaxing)
 .eh_frame      0x000000008003efe4       0x68 /usr/local/xenon/xenon/lib/32/libc.a(lib_a-strtol.o)
                                         0x7c (size before relaxing)
 .eh_frame      0x000000008003f04c       0x88 /usr/local/xenon/xenon/lib/32/libc.a(lib_a-strtoll.o)
                                         0x9c (size before relaxing)
 .eh_frame      0x000000008003f0d4       0x94 /usr/local/xenon/xenon/lib/32/libc.a(lib_a-strtoull.o)
                                         0xa8 (size before relaxing)
 .eh_frame      0x000000008003f168       0x24 /usr/local/xenon/lib/gcc/xenon/9.2.0/32/libgcc.a(_divdi3.o)
                                         0x38 (size before relaxing)
 .eh_frame      0x000000008003f18c       0x2c /usr/local/xenon/lib/gcc/xenon/9.2.0/32/libgcc.a(_moddi3.o)
                                         0x40 (size before relaxing)
 .eh_frame      0x000000008003f1b8       0x34 /usr/local/xenon/lib/gcc/xenon/9.2.0/32/libgcc.a(_udivdi3.o)
                                         0x48 (size before relaxing)
 .eh_frame      0x000000008003f1ec       0x34 /usr/local/xenon/lib/gcc/xenon/9.2.0/32/libgcc.a(_umoddi3.o)
                                         0x48 (size before relaxing)
 .eh_frame      0x000000008003f220        0x4 /usr/local/xenon/lib/gcc/xenon/9.2.0/32/crtend.o
                0x000000008003f224        0x4 LONG 0x0

.rela.dyn       0x000000008003f228        0x0
 .rela.iplt     0x000000008003f228        0x0 /usr/local/xenon/usr/lib/libxenon.a(xenon_syscalls.o)
 .rela.text.call_ctors
                0x000000008003f228        0x0 /usr/local/xenon/usr/lib/libxenon.a(xenon_syscalls.o)
 .rela.text.c_register_frame
                0x000000008003f228        0x0 /usr/local/xenon/usr/lib/libxenon.a(xenon_syscalls.o)
 .rela.text     0x000000008003f228        0x0 /usr/local/xenon/usr/lib/libxenon.a(xenon_syscalls.o)
 .rela.text.ata_sectors
                0x000000008003f228        0x0 /usr/local/xenon/usr/lib/libxenon.a(xenon_syscalls.o)
 .rela.text.xenon_ata_setlba.constprop.0
                0x000000008003f228        0x0 /usr/local/xenon/usr/lib/libxenon.a(xenon_syscalls.o)
 .rela.text.xenon_ata_setaddress.constprop.0
                0x000000008003f228        0x0 /usr/local/xenon/usr/lib/libxenon.a(xenon_syscalls.o)
 .rela.text.ata_readsectors
                0x000000008003f228        0x0 /usr/local/xenon/usr/lib/libxenon.a(xenon_syscalls.o)
 .rela.text.ata_writesectors
                0x000000008003f228        0x0 /usr/local/xenon/usr/lib/libxenon.a(xenon_syscalls.o)
 .rela.text.xenon_ata_init
                0x000000008003f228        0x0 /usr/local/xenon/usr/lib/libxenon.a(xenon_syscalls.o)
 .rela.text.xenon_atapi_init
                0x000000008003f228        0x0 /usr/local/xenon/usr/lib/libxenon.a(xenon_syscalls.o)
 .rela.text.xenon_sbrk
                0x000000008003f228        0x0 /usr/local/xenon/usr/lib/libxenon.a(xenon_syscalls.o)
 .rela.text.usb_init_one_ohci
                0x000000008003f228        0x0 /usr/local/xenon/usr/lib/libxenon.a(xenon_syscalls.o)
 .rela.text.usb_do_poll
                0x000000008003f228        0x0 /usr/local/xenon/usr/lib/libxenon.a(xenon_syscalls.o)
 .rela.text.EHCI_do_one
                0x000000008003f228        0x0 /usr/local/xenon/usr/lib/libxenon.a(xenon_syscalls.o)
 .rela.text.USBStorage_Init
                0x000000008003f228        0x0 /usr/local/xenon/usr/lib/libxenon.a(xenon_syscalls.o)
 .rela.text.rawflash_readImage
                0x000000008003f228        0x0 /usr/local/xenon/usr/lib/libxenon.a(xenon_syscalls.o)
 .rela.text.kmem_init
                0x000000008003f228        0x0 /usr/local/xenon/usr/lib/libxenon.a(xenon_syscalls.o)
 .rela.text._ohci_dma_alloc
                0x000000008003f228        0x0 /usr/local/xenon/usr/lib/libxenon.a(xenon_syscalls.o)
 .rela.text.ohci_create
                0x000000008003f228        0x0 /usr/local/xenon/usr/lib/libxenon.a(xenon_syscalls.o)
 .rela.text.usb_create_pipe
                0x000000008003f228        0x0 /usr/local/xenon/usr/lib/libxenon.a(xenon_syscalls.o)
 .rela.text.usb_destroy_all_pipes
                0x000000008003f228        0x0 /usr/local/xenon/usr/lib/libxenon.a(xenon_syscalls.o)
 .rela.text.usb_destroy_device
                0x000000008003f228        0x0 /usr/local/xenon/usr/lib/libxenon.a(xenon_syscalls.o)
 .rela.text.usb_create_device
                0x000000008003f228        0x0 /usr/local/xenon/usr/lib/libxenon.a(xenon_syscalls.o)
 .rela.text.usb_make_request
                0x000000008003f228        0x0 /usr/local/xenon/usr/lib/libxenon.a(xenon_syscalls.o)
 .rela.text.usb_free_request
                0x000000008003f228        0x0 /usr/local/xenon/usr/lib/libxenon.a(xenon_syscalls.o)
 .rela.text.usb_clear_stall
                0x000000008003f228        0x0 /usr/local/xenon/usr/lib/libxenon.a(xenon_syscalls.o)
 .rela.text.usb_std_request
                0x000000008003f228        0x0 /usr/local/xenon/usr/lib/libxenon.a(xenon_syscalls.o)
 .rela.text.usb_get_string
                0x000000008003f228        0x0 /usr/local/xenon/usr/lib/libxenon.a(xenon_syscalls.o)
 .rela.text.usb_get_device_descriptor
                0x000000008003f228        0x0 /usr/local/xenon/usr/lib/libxenon.a(xenon_syscalls.o)
 .rela.text.usb_get_config_descriptor
                0x000000008003f228        0x0 /usr/local/xenon/usr/lib/libxenon.a(xenon_syscalls.o)
 .rela.text.usb_initroot
                0x000000008003f228        0x0 /usr/local/xenon/usr/lib/libxenon.a(xenon_syscalls.o)
 .rela.text.usbhid_attach
                0x000000008003f228        0x0 /usr/local/xenon/usr/lib/libxenon.a(xenon_syscalls.o)
 .rela.text.usbhub_detach
                0x000000008003f228        0x0 /usr/local/xenon/usr/lib/libxenon.a(xenon_syscalls.o)
 .rela.text.usbhub_attach
                0x000000008003f228        0x0 /usr/local/xenon/usr/lib/libxenon.a(xenon_syscalls.o)
 .rela.text.usbhub_scan1
                0x000000008003f228        0x0 /usr/local/xenon/usr/lib/libxenon.a(xenon_syscalls.o)
 .rela.text.usbctrl_set_led_callback
                0x000000008003f228        0x0 /usr/local/xenon/usr/lib/libxenon.a(xenon_syscalls.o)
 .rela.text.usbctrl_set_rol
                0x000000008003f228        0x0 /usr/local/xenon/usr/lib/libxenon.a(xenon_syscalls.o)
 .rela.text.usbctrl_set_leds
                0x000000008003f228        0x0 /usr/local/xenon/usr/lib/libxenon.a(xenon_syscalls.o)
 .rela.text.usbctrl_poll
                0x000000008003f228        0x0 /usr/local/xenon/usr/lib/libxenon.a(xenon_syscalls.o)
 .rela.text.usbctrl_attach
                0x000000008003f228        0x0 /usr/local/xenon/usr/lib/libxenon.a(xenon_syscalls.o)

.gcc_except_table
 *(.gcc_except_table .gcc_except_table.*)
                0x000000008003f228                bss_start = .

.bss            0x000000008003f280   0x15c008
 *(.bss.beginning.lower)
 *(.bss.beginning.upper)
 *(.bss*)
 .bss.ata_ready
                0x000000008003f280        0x4 /usr/local/xenon/usr/lib/libxenon.a(ata.o)
 .bss.atapi_ready
                0x000000008003f284        0x4 /usr/local/xenon/usr/lib/libxenon.a(ata.o)
 .bss.handles   0x000000008003f288     0x1000 /usr/local/xenon/usr/lib/libxenon.a(newlib.o)
 .bss.lockcount
                0x0000000080040288        0x4 /usr/local/xenon/usr/lib/libxenon.a(xenon_syscalls.o)
 *fill*         0x000000008004028c       0x74 
 .bss.malloc_spinlock
                0x0000000080040300        0x4 /usr/local/xenon/usr/lib/libxenon.a(xenon_syscalls.o)
 *fill*         0x0000000080040304       0x7c 
 .bss.safety_spinlock
                0x0000000080040380        0x4 /usr/local/xenon/usr/lib/libxenon.a(xenon_syscalls.o)
 *fill*         0x0000000080040384        0x4 
 .bss.text      0x0000000080040388     0x1000 /usr/local/xenon/usr/lib/libxenon.a(c_except.o)
 .bss.userpagetable
                0x0000000080041388    0x14000 /usr/local/xenon/usr/lib/libxenon.a(vm.o)
                0x0000000080041388                userpagetable
 .bss.in_poll.5022
                0x0000000080055388        0x4 /usr/local/xenon/usr/lib/libxenon.a(usbmain.o)
 .bss.initdone.5035
                0x000000008005538c        0x4 /usr/local/xenon/usr/lib/libxenon.a(usbmain.o)
 .bss._ehci_data
                0x0000000080055390      0x5a0 /usr/local/xenon/usr/lib/libxenon.a(tinyehci.o)
 .bss._ehci_device_count
                0x0000000080055930        0x4 /usr/local/xenon/usr/lib/libxenon.a(tinyehci.o)
 .bss.udd.5658  0x0000000080055934       0x16 /usr/local/xenon/usr/lib/libxenon.a(tinyehci.o)
 *fill*         0x000000008005594a        0x2 
 .bss.ums_init_done
                0x000000008005594c        0x4 /usr/local/xenon/usr/lib/libxenon.a(tinyehci.o)
 .bss.stack     0x0000000080055950     0x5000 /usr/local/xenon/usr/lib/libxenon.a(xenon_power.o)
 .bss.thread_state
                0x000000008005a950       0x18 /usr/local/xenon/usr/lib/libxenon.a(xenon_power.o)
 .bss.sfc       0x000000008005a968       0x44 /usr/local/xenon/usr/lib/libxenon.a(xenon_sfcx.o)
                0x000000008005a968                sfc
 .bss.secured_settings
                0x000000008005a9ac      0x208 /usr/local/xenon/usr/lib/libxenon.a(xenon_config.o)
                0x000000008005a9ac                secured_settings
 .bss.xenon_config_initialized
                0x000000008005abb4        0x4 /usr/local/xenon/usr/lib/libxenon.a(xenon_config.o)
 .bss.xenos_current_mode
                0x000000008005abb8        0x4 /usr/local/xenon/usr/lib/libxenon.a(xenos.o)
 .bss.console_fb
                0x000000008005abbc        0x4 /usr/local/xenon/usr/lib/libxenon.a(console.o)
 .bss.console_height
                0x000000008005abc0        0x4 /usr/local/xenon/usr/lib/libxenon.a(console.o)
 .bss.console_size
                0x000000008005abc4        0x4 /usr/local/xenon/usr/lib/libxenon.a(console.o)
 .bss.console_width
                0x000000008005abc8        0x4 /usr/local/xenon/usr/lib/libxenon.a(console.o)
 .bss.cursor_x  0x000000008005abcc        0x4 /usr/local/xenon/usr/lib/libxenon.a(console.o)
 .bss.cursor_y  0x000000008005abd0        0x4 /usr/local/xenon/usr/lib/libxenon.a(console.o)
 .bss.max_x     0x000000008005abd4        0x4 /usr/local/xenon/usr/lib/libxenon.a(console.o)
 .bss.max_y     0x000000008005abd8        0x4 /usr/local/xenon/usr/lib/libxenon.a(console.o)
 .bss.offset_x  0x000000008005abdc        0x4 /usr/local/xenon/usr/lib/libxenon.a(console.o)
 .bss.offset_y  0x000000008005abe0        0x4 /usr/local/xenon/usr/lib/libxenon.a(console.o)
 *fill*         0x000000008005abe4        0x4 
 .bss.heap      0x000000008005abe8   0x100000 /usr/local/xenon/usr/lib/libxenon.a(lib_malloc.o)
 .bss.kmem_init_done
                0x000000008015abe8        0x4 /usr/local/xenon/usr/lib/libxenon.a(lib_malloc.o)
 .bss.aligned_mem
                0x000000008015abec        0x4 /usr/local/xenon/usr/lib/libxenon.a(usb_os.o)
 *fill*         0x000000008015abf0       0x10 
 .bss.heapspace
                0x000000008015ac00    0x40000 /usr/local/xenon/usr/lib/libxenon.a(usb_os.o)
 .bss.controller_mask
                0x000000008019ac00        0x4 /usr/local/xenon/usr/lib/libxenon.a(usbctrl.o)
 .bss.controllers
                0x000000008019ac04       0x10 /usr/local/xenon/usr/lib/libxenon.a(usbctrl.o)
 *fill*         0x000000008019ac14        0x4 
 .bss.buf.4384  0x000000008019ac18      0x100 /usr/local/xenon/usr/lib/libxenon.a(usbdebug.o)
 .bss.ctrl      0x000000008019ad18      0x120 /usr/local/xenon/usr/lib/libxenon.a(input.o)
 .bss.valid     0x000000008019ae38       0x10 /usr/local/xenon/usr/lib/libxenon.a(input.o)
 .bss           0x000000008019ae48        0x4 /usr/local/xenon/usr/lib/libfat.a(cache.o)
 .bss           0x000000008019ae4c       0x10 /usr/local/xenon/lib/gcc/xenon/9.2.0/32/libgcc.a(unwind-dw2-fde-dip.o)
 .bss           0x000000008019ae5c       0x28 /usr/local/xenon/xenon/lib/32/libc.a(lib_a-mallocr.o)
                0x000000008019ae5c                __malloc_current_mallinfo
 .bss           0x000000008019ae84       0x1b /usr/local/xenon/xenon/lib/32/libc.a(lib_a-tzset_r.o)
 *fill*         0x000000008019ae9f        0x1 
 .bss           0x000000008019aea0        0x4 /usr/local/xenon/xenon/lib/32/libc.a(lib_a-environ.o)
 COMMON         0x000000008019aea4       0x48 /usr/local/xenon/usr/lib/libxenon.a(ata.o)
                0x000000008019aea4                atapi
                0x000000008019aec8                ata
 COMMON         0x000000008019aeec       0x10 /usr/local/xenon/usr/lib/libxenon.a(usbmain.o)
                0x000000008019aeec                usb_buses
 COMMON         0x000000008019aefc      0x380 /usr/local/xenon/usr/lib/libxenon.a(tinyehci.o)
                0x000000008019aefc                ehci_hcds
 COMMON         0x000000008019b27c        0xc /usr/local/xenon/usr/lib/libxenon.a(lib_malloc.o)
                0x000000008019b27c                kmempool

.iplt           0x000000008019b290        0x0
 .iplt          0x000000008019b290        0x0 /usr/local/xenon/usr/lib/libxenon.a(xenon_syscalls.o)

.sbss           0x000000008019b288       0x68
 *(.sbss .sbss.*)
 .sbss          0x000000008019b288        0xc main.o
                0x000000008019b288                onebl_written
                0x000000008019b28c                nand_written
                0x000000008019b290                fuses_written
 .sbss.stdlog_hook
                0x000000008019b294        0x4 /usr/local/xenon/usr/lib/libxenon.a(newlib.o)
                0x000000008019b294                stdlog_hook
 .sbss.stdout_hook
                0x000000008019b298        0x4 /usr/local/xenon/usr/lib/libxenon.a(newlib.o)
                0x000000008019b298                stdout_hook
 .sbss          0x000000008019b29c        0x4 /usr/local/xenon/usr/lib/libxenon.a(xenon_syscalls.o)
                0x000000008019b29c                heap_ptr
 .sbss.vm_segfault_handler
                0x000000008019b2a0        0x4 /usr/local/xenon/usr/lib/libxenon.a(vm.o)
                0x000000008019b2a0                vm_segfault_handler
 .sbss.usb_buscnt
                0x000000008019b2a4        0x4 /usr/local/xenon/usr/lib/libxenon.a(usbmain.o)
                0x000000008019b2a4                usb_buscnt
 .sbss.usb_initialized
                0x000000008019b2a8        0x4 /usr/local/xenon/usr/lib/libxenon.a(usbmain.o)
                0x000000008019b2a8                usb_initialized
 .sbss.handshake_mode
                0x000000008019b2ac        0x4 /usr/local/xenon/usr/lib/libxenon.a(tinyehci.o)
                0x000000008019b2ac                handshake_mode
 .sbss.mount_usb_device
                0x000000008019b2b0        0x4 /usr/local/xenon/usr/lib/libxenon.a(tinyehci.o)
                0x000000008019b2b0                mount_usb_device
 .sbss.try_status
                0x000000008019b2b4        0x4 /usr/local/xenon/usr/lib/libxenon.a(tinyehci.o)
                0x000000008019b2b4                try_status
 .sbss.unplug_device
                0x000000008019b2b8        0x4 /usr/local/xenon/usr/lib/libxenon.a(tinyehci.o)
                0x000000008019b2b8                unplug_device
 .sbss          0x000000008019b2bc        0x4 /usr/local/xenon/usr/lib/libxenon.a(xenon_sfcx.o)
                0x000000008019b2bc                blockbuf
 .sbss.xenos_id
                0x000000008019b2c0        0x4 /usr/local/xenon/usr/lib/libxenon.a(xenos.o)
                0x000000008019b2c0                xenos_id
 .sbss.xenos_is_corona
                0x000000008019b2c4        0x4 /usr/local/xenon/usr/lib/libxenon.a(xenos.o)
                0x000000008019b2c4                xenos_is_corona
 .sbss.xenos_is_hdmi
                0x000000008019b2c8        0x4 /usr/local/xenon/usr/lib/libxenon.a(xenos.o)
                0x000000008019b2c8                xenos_is_hdmi
 .sbss.xenos_is_winchester
                0x000000008019b2cc        0x4 /usr/local/xenon/usr/lib/libxenon.a(xenos.o)
                0x000000008019b2cc                xenos_is_winchester
 .sbss.usb_noisy
                0x000000008019b2d0        0x4 /usr/local/xenon/usr/lib/libxenon.a(usbd.o)
                0x000000008019b2d0                usb_noisy
 .sbss          0x000000008019b2d4        0x4 /usr/local/xenon/usr/lib/libxenon.a(usbctrl.o)
                0x000000008019b2d4                RFdev
 .sbss          0x000000008019b2d8        0xc /usr/local/xenon/xenon/lib/32/libc.a(lib_a-mallocr.o)
                0x000000008019b2d8                __malloc_max_total_mem
                0x000000008019b2dc                __malloc_max_sbrked_mem
                0x000000008019b2e0                __malloc_top_pad
 .sbss          0x000000008019b2e4        0x4 /usr/local/xenon/xenon/lib/32/libc.a(lib_a-reent.o)
                0x000000008019b2e4                errno
 .sbss          0x000000008019b2e8        0x8 /usr/local/xenon/xenon/lib/32/libc.a(lib_a-tzvars.o)
                0x000000008019b2e8                _timezone
                0x000000008019b2ec                _daylight
                0x000000008019b2f0                bss_end = .
                0x000000008019b2f0                heap_begin = .
                0x000000009e000000                . = 0x9e000000
                0x000000009e000000                __libc_stack_end = .
                0x000000009e000000                heap_end = .
                0x00000000a0000000                . = 0xa0000000
OUTPUT(/home/vali/development/libxenon/devkitxenon/xenon-emu/xenon-emu.elf elf32-powerpc)

.debug_info     0x0000000000000000    0xd1139
 .debug_info    0x0000000000000000      0x200 /usr/local/xenon/lib/gcc/xenon/9.2.0/../../../../xenon/lib/../lib/crt1.o
 .debug_info    0x0000000000000200     0x1cea main.o
 .debug_info    0x0000000000001eea       0xd8 /usr/local/xenon/usr/lib/libxenon.a(argv.o)
 .debug_info    0x0000000000001fc2     0x32a8 /usr/local/xenon/usr/lib/libxenon.a(ata.o)
 .debug_info    0x000000000000526a     0x3a05 /usr/local/xenon/usr/lib/libxenon.a(newlib.o)
 .debug_info    0x0000000000008c6f     0x1ad5 /usr/local/xenon/usr/lib/libxenon.a(xenon_syscalls.o)
 .debug_info    0x000000000000a744      0xe62 /usr/local/xenon/usr/lib/libxenon.a(c_except.o)
 .debug_info    0x000000000000b5a6      0xdf0 /usr/local/xenon/usr/lib/libxenon.a(vm.o)
 .debug_info    0x000000000000c396      0x1e6 /usr/local/xenon/usr/lib/libxenon.a(time.o)
 .debug_info    0x000000000000c57c     0x1652 /usr/local/xenon/usr/lib/libxenon.a(usbmain.o)
 .debug_info    0x000000000000dbce     0x66c3 /usr/local/xenon/usr/lib/libxenon.a(tinyehci.o)
 .debug_info    0x0000000000014291      0xdfb /usr/local/xenon/usr/lib/libxenon.a(debug.o)
 .debug_info    0x000000000001508c     0x13b7 /usr/local/xenon/usr/lib/libxenon.a(xenon_smc.o)
 .debug_info    0x0000000000016443     0x185d /usr/local/xenon/usr/lib/libxenon.a(xenon_power.o)
 .debug_info    0x0000000000017ca0      0x108 /usr/local/xenon/usr/lib/libxenon.a(xenon_secotp.o)
 .debug_info    0x0000000000017da8      0x135 /usr/local/xenon/usr/lib/libxenon.a(xenon_uart.o)
 .debug_info    0x0000000000017edd     0x2513 /usr/local/xenon/usr/lib/libxenon.a(xenon_sfcx.o)
 .debug_info    0x000000000001a3f0      0xeba /usr/local/xenon/usr/lib/libxenon.a(xenon_config.o)
 .debug_info    0x000000000001b2aa     0x5870 /usr/local/xenon/usr/lib/libxenon.a(xenos.o)
 .debug_info    0x0000000000020b1a     0x15e4 /usr/local/xenon/usr/lib/libxenon.a(xenos_edid.o)
 .debug_info    0x00000000000220fe     0x1f4b /usr/local/xenon/usr/lib/libxenon.a(enet.o)
 .debug_info    0x0000000000024049     0x2513 /usr/local/xenon/usr/lib/libxenon.a(xb360.o)
 .debug_info    0x000000000002655c      0xf86 /usr/local/xenon/usr/lib/libxenon.a(console.o)
 .debug_info    0x00000000000274e2      0xef6 /usr/local/xenon/usr/lib/libxenon.a(lib_malloc.o)
 .debug_info    0x00000000000283d8      0x13d /usr/local/xenon/usr/lib/libxenon.a(io.o)
 .debug_info    0x0000000000028515     0x2dd5 /usr/local/xenon/usr/lib/libxenon.a(ohci.o)
 .debug_info    0x000000000002b2ea     0x2aea /usr/local/xenon/usr/lib/libxenon.a(usbd.o)
 .debug_info    0x000000000002ddd4     0x140b /usr/local/xenon/usr/lib/libxenon.a(usbdevs.o)
 .debug_info    0x000000000002f1df     0x1873 /usr/local/xenon/usr/lib/libxenon.a(usbhid.o)
 .debug_info    0x0000000000030a52     0x273e /usr/local/xenon/usr/lib/libxenon.a(usbhub.o)
 .debug_info    0x0000000000033190      0xddd /usr/local/xenon/usr/lib/libxenon.a(usb_os.o)
 .debug_info    0x0000000000033f6d      0x214 /usr/local/xenon/usr/lib/libxenon.a(xenon_gpio.o)
 .debug_info    0x0000000000034181     0x1024 /usr/local/xenon/usr/lib/libxenon.a(mem.o)
 .debug_info    0x00000000000351a5     0x275d /usr/local/xenon/usr/lib/libxenon.a(pbuf.o)
 .debug_info    0x0000000000037902      0xb36 /usr/local/xenon/usr/lib/libxenon.a(stats.o)
 .debug_info    0x0000000000038438     0x24d3 /usr/local/xenon/usr/lib/libxenon.a(etharp.o)
 .debug_info    0x000000000003a90b     0x392e /usr/local/xenon/usr/lib/libxenon.a(dhcp.o)
 .debug_info    0x000000000003e239     0x10bf /usr/local/xenon/usr/lib/libxenon.a(hmac_sha1.o)
 .debug_info    0x000000000003f2f8      0x142 /usr/local/xenon/usr/lib/libxenon.a(rc4.o)
 .debug_info    0x000000000003f43a      0xc86 /usr/local/xenon/usr/lib/libxenon.a(sha1.o)
 .debug_info    0x00000000000400c0      0xbb2 /usr/local/xenon/usr/lib/libxenon.a(lib_queue.o)
 .debug_info    0x0000000000040c72     0x115f /usr/local/xenon/usr/lib/libxenon.a(dummy.o)
 .debug_info    0x0000000000041dd1     0x2028 /usr/local/xenon/usr/lib/libxenon.a(usbctrl.o)
 .debug_info    0x0000000000043df9     0x2116 /usr/local/xenon/usr/lib/libxenon.a(usbdebug.o)
 .debug_info    0x0000000000045f0f     0x1b26 /usr/local/xenon/usr/lib/libxenon.a(dns.o)
 .debug_info    0x0000000000047a35     0x1810 /usr/local/xenon/usr/lib/libxenon.a(memp.o)
 .debug_info    0x0000000000049245     0x1e83 /usr/local/xenon/usr/lib/libxenon.a(netif.o)
 .debug_info    0x000000000004b0c8     0x2c5e /usr/local/xenon/usr/lib/libxenon.a(tcp.o)
 .debug_info    0x000000000004dd26      0xf4e /usr/local/xenon/usr/lib/libxenon.a(ip_addr.o)
 .debug_info    0x000000000004ec74     0x1fad /usr/local/xenon/usr/lib/libxenon.a(ip.o)
 .debug_info    0x0000000000050c21     0x1dab /usr/local/xenon/usr/lib/libxenon.a(ip_frag.o)
 .debug_info    0x00000000000529cc     0x29a8 /usr/local/xenon/usr/lib/libxenon.a(tcp_out.o)
 .debug_info    0x0000000000055374     0x1b6c /usr/local/xenon/usr/lib/libxenon.a(udp.o)
 .debug_info    0x0000000000056ee0     0x1460 /usr/local/xenon/usr/lib/libxenon.a(raw.o)
 .debug_info    0x0000000000058340     0x12e4 /usr/local/xenon/usr/lib/libxenon.a(timers.o)
 .debug_info    0x0000000000059624      0x330 /usr/local/xenon/usr/lib/libxenon.a(input.o)
 .debug_info    0x0000000000059954     0x23c7 /usr/local/xenon/usr/lib/libxenon.a(tcp_in.o)
 .debug_info    0x000000000005bd1b      0xd95 /usr/local/xenon/usr/lib/libxenon.a(inet_chksum.o)
 .debug_info    0x000000000005cab0     0x156b /usr/local/xenon/usr/lib/libxenon.a(icmp.o)
 .debug_info    0x000000000005e01b     0x20f7 /usr/local/xenon/usr/lib/libfat.a(libfat.o)
 .debug_info    0x0000000000060112     0x2d78 /usr/local/xenon/usr/lib/libfat.a(partition.o)
 .debug_info    0x0000000000062e8a     0x1ab9 /usr/local/xenon/usr/lib/libfat.a(cache.o)
 .debug_info    0x0000000000064943     0x3209 /usr/local/xenon/usr/lib/libfat.a(directory.o)
 .debug_info    0x0000000000067b4c      0x372 /usr/local/xenon/usr/lib/libfat.a(disc.o)
 .debug_info    0x0000000000067ebe     0x2db0 /usr/local/xenon/usr/lib/libfat.a(fatdir.o)
 .debug_info    0x000000000006ac6e     0x2f69 /usr/local/xenon/usr/lib/libfat.a(fatfile.o)
 .debug_info    0x000000000006dbd7     0x16d4 /usr/local/xenon/usr/lib/libfat.a(file_allocation_table.o)
 .debug_info    0x000000000006f2ab      0xb9a /usr/local/xenon/usr/lib/libfat.a(filetime.o)
 .debug_info    0x000000000006fe45      0x170 /usr/local/xenon/usr/lib/libfat.a(lock.o)
 .debug_info    0x000000000006ffb5       0x26 /usr/local/xenon/lib/gcc/xenon/9.2.0/32/libgcc.a(crtsavgpr.o)
 .debug_info    0x000000000006ffdb       0x26 /usr/local/xenon/lib/gcc/xenon/9.2.0/32/libgcc.a(crtresxgpr.o)
 .debug_info    0x0000000000070001     0x5071 /usr/local/xenon/lib/gcc/xenon/9.2.0/32/libgcc.a(unwind-dw2-fde-dip.o)
 .debug_info    0x0000000000075072      0xa2d /usr/local/xenon/xenon/lib/32/libc.a(lib_a-assert.o)
 .debug_info    0x0000000000075a9f      0xe91 /usr/local/xenon/xenon/lib/32/libc.a(lib_a-ctype_.o)
 .debug_info    0x0000000000076930      0x953 /usr/local/xenon/xenon/lib/32/libc.a(lib_a-errno.o)
 .debug_info    0x0000000000077283      0x9d0 /usr/local/xenon/xenon/lib/32/libc.a(lib_a-exit.o)
 .debug_info    0x0000000000077c53      0xcd9 /usr/local/xenon/xenon/lib/32/libc.a(lib_a-fclose.o)
 .debug_info    0x000000000007892c      0xd72 /usr/local/xenon/xenon/lib/32/libc.a(lib_a-fflush.o)
 .debug_info    0x000000000007969e     0x1142 /usr/local/xenon/xenon/lib/32/libc.a(lib_a-findfp.o)
 .debug_info    0x000000000007a7e0      0xaae /usr/local/xenon/xenon/lib/32/libc.a(lib_a-fiprintf.o)
 .debug_info    0x000000000007b28e      0xd12 /usr/local/xenon/xenon/lib/32/libc.a(lib_a-fopen.o)
 .debug_info    0x000000000007bfa0      0xddd /usr/local/xenon/xenon/lib/32/libc.a(lib_a-fread.o)
 .debug_info    0x000000000007cd7d      0xdc4 /usr/local/xenon/xenon/lib/32/libc.a(lib_a-freer.o)
 .debug_info    0x000000000007db41      0xcaf /usr/local/xenon/xenon/lib/32/libc.a(lib_a-fseek.o)
 .debug_info    0x000000000007e7f0     0x1134 /usr/local/xenon/xenon/lib/32/libc.a(lib_a-fseeko.o)
 .debug_info    0x000000000007f924      0xc23 /usr/local/xenon/xenon/lib/32/libc.a(lib_a-fstatr.o)
 .debug_info    0x0000000000080547      0xc35 /usr/local/xenon/xenon/lib/32/libc.a(lib_a-ftell.o)
 .debug_info    0x000000000008117c      0xc10 /usr/local/xenon/xenon/lib/32/libc.a(lib_a-ftello.o)
 .debug_info    0x0000000000081d8c      0xcaa /usr/local/xenon/xenon/lib/32/libc.a(lib_a-fwalk.o)
 .debug_info    0x0000000000082a36      0xd22 /usr/local/xenon/xenon/lib/32/libc.a(lib_a-fwrite.o)
 .debug_info    0x0000000000083758      0x92a /usr/local/xenon/xenon/lib/32/libc.a(lib_a-impure.o)
 .debug_info    0x0000000000084082      0xc6f /usr/local/xenon/xenon/lib/32/libc.a(lib_a-lcltime_r.o)
 .debug_info    0x0000000000084cf1     0x10c7 /usr/local/xenon/xenon/lib/32/libc.a(lib_a-locale.o)
 .debug_info    0x0000000000085db8      0xf63 /usr/local/xenon/xenon/lib/32/libc.a(lib_a-makebuf.o)
 .debug_info    0x0000000000086d1b      0x989 /usr/local/xenon/xenon/lib/32/libc.a(lib_a-malign.o)
 .debug_info    0x00000000000876a4      0xccf /usr/local/xenon/xenon/lib/32/libc.a(lib_a-malignr.o)
 .debug_info    0x0000000000088373      0x9b6 /usr/local/xenon/xenon/lib/32/libc.a(lib_a-malloc.o)
 .debug_info    0x0000000000088d29      0xf41 /usr/local/xenon/xenon/lib/32/libc.a(lib_a-mallocr.o)
 .debug_info    0x0000000000089c6a     0x10bf /usr/local/xenon/xenon/lib/32/libc.a(lib_a-mbrtowc.o)
 .debug_info    0x000000000008ad29      0xada /usr/local/xenon/xenon/lib/32/libc.a(lib_a-mbsrtowcs.o)
 .debug_info    0x000000000008b803     0x1039 /usr/local/xenon/xenon/lib/32/libc.a(lib_a-mbtowc_r.o)
 .debug_info    0x000000000008c83c      0x9c2 /usr/local/xenon/xenon/lib/32/libc.a(lib_a-memcmp.o)
 .debug_info    0x000000000008d1fe      0xf2d /usr/local/xenon/xenon/lib/32/libc.a(lib_a-memcpy.o)
 .debug_info    0x000000000008e12b      0xf23 /usr/local/xenon/xenon/lib/32/libc.a(lib_a-memmove.o)
 .debug_info    0x000000000008f04e      0xf21 /usr/local/xenon/xenon/lib/32/libc.a(lib_a-memset.o)
 .debug_info    0x000000000008ff6f      0xdb6 /usr/local/xenon/xenon/lib/32/libc.a(lib_a-mktime.o)
 .debug_info    0x0000000000090d25      0x970 /usr/local/xenon/xenon/lib/32/libc.a(lib_a-month_lengths.o)
 .debug_info    0x0000000000091695      0xa42 /usr/local/xenon/xenon/lib/32/libc.a(lib_a-openr.o)
 .debug_info    0x00000000000920d7      0xc80 /usr/local/xenon/xenon/lib/32/libc.a(lib_a-printf.o)
 .debug_info    0x0000000000092d57      0xbb5 /usr/local/xenon/xenon/lib/32/libc.a(lib_a-putchar.o)
 .debug_info    0x000000000009390c      0xce0 /usr/local/xenon/xenon/lib/32/libc.a(lib_a-puts.o)
 .debug_info    0x00000000000945ec      0xac5 /usr/local/xenon/xenon/lib/32/libc.a(lib_a-reent.o)
 .debug_info    0x00000000000950b1      0xcd4 /usr/local/xenon/xenon/lib/32/libc.a(lib_a-refill.o)
 .debug_info    0x0000000000095d85      0x9fa /usr/local/xenon/xenon/lib/32/libc.a(lib_a-sbrkr.o)
 .debug_info    0x000000000009677f      0xd8d /usr/local/xenon/xenon/lib/32/libc.a(lib_a-snprintf.o)
 .debug_info    0x000000000009750c      0xcd2 /usr/local/xenon/xenon/lib/32/libc.a(lib_a-sprintf.o)
 .debug_info    0x00000000000981de      0xe8a /usr/local/xenon/xenon/lib/32/libc.a(lib_a-stdio.o)
 .debug_info    0x0000000000099068      0x990 /usr/local/xenon/xenon/lib/32/libc.a(lib_a-stpcpy.o)
 .debug_info    0x00000000000999f8      0x9a4 /usr/local/xenon/xenon/lib/32/libc.a(lib_a-strcat.o)
 .debug_info    0x000000000009a39c      0x9b9 /usr/local/xenon/xenon/lib/32/libc.a(lib_a-strchr.o)
 .debug_info    0x000000000009ad55      0x977 /usr/local/xenon/xenon/lib/32/libc.a(lib_a-strcmp.o)
 .debug_info    0x000000000009b6cc      0x9a8 /usr/local/xenon/xenon/lib/32/libc.a(lib_a-strcpy.o)
 .debug_info    0x000000000009c074      0x973 /usr/local/xenon/xenon/lib/32/libc.a(lib_a-strlen.o)
 .debug_info    0x000000000009c9e7      0x173 /usr/local/xenon/xenon/lib/32/libc.a(lib_a-strncasecmp.o)
 .debug_info    0x000000000009cb5a      0x995 /usr/local/xenon/xenon/lib/32/libc.a(lib_a-strncmp.o)
 .debug_info    0x000000000009d4ef      0x9ca /usr/local/xenon/xenon/lib/32/libc.a(lib_a-strncpy.o)
 .debug_info    0x000000000009deb9      0x967 /usr/local/xenon/xenon/lib/32/libc.a(lib_a-strnlen.o)
 .debug_info    0x000000000009e820      0x953 /usr/local/xenon/xenon/lib/32/libc.a(lib_a-strpbrk.o)
 .debug_info    0x000000000009f173      0x986 /usr/local/xenon/xenon/lib/32/libc.a(lib_a-strrchr.o)
 .debug_info    0x000000000009faf9     0x1e61 /usr/local/xenon/xenon/lib/32/libc.a(lib_a-svfprintf.o)
 .debug_info    0x00000000000a195a      0x9f9 /usr/local/xenon/xenon/lib/32/libc.a(lib_a-time.o)
 .debug_info    0x00000000000a2353      0xed5 /usr/local/xenon/xenon/lib/32/libc.a(lib_a-towlower.o)
 .debug_info    0x00000000000a3228      0xed5 /usr/local/xenon/xenon/lib/32/libc.a(lib_a-towupper.o)
 .debug_info    0x00000000000a40fd      0xb71 /usr/local/xenon/xenon/lib/32/libc.a(lib_a-tzcalc_limits.o)
 .debug_info    0x00000000000a4c6e      0x997 /usr/local/xenon/xenon/lib/32/libc.a(lib_a-tzlock.o)
 .debug_info    0x00000000000a5605      0x9e0 /usr/local/xenon/xenon/lib/32/libc.a(lib_a-tzset.o)
 .debug_info    0x00000000000a5fe5      0xe8e /usr/local/xenon/xenon/lib/32/libc.a(lib_a-tzset_r.o)
 .debug_info    0x00000000000a6e73      0x957 /usr/local/xenon/xenon/lib/32/libc.a(lib_a-tzvars.o)
 .debug_info    0x00000000000a77ca     0x1ebd /usr/local/xenon/xenon/lib/32/libc.a(lib_a-vfiprintf.o)
 .debug_info    0x00000000000a9687     0x2048 /usr/local/xenon/xenon/lib/32/libc.a(lib_a-vfprintf.o)
 .debug_info    0x00000000000ab6cf      0xc95 /usr/local/xenon/xenon/lib/32/libc.a(lib_a-vsprintf.o)
 .debug_info    0x00000000000ac364     0x10a9 /usr/local/xenon/xenon/lib/32/libc.a(lib_a-wcrtomb.o)
 .debug_info    0x00000000000ad40d      0xf76 /usr/local/xenon/xenon/lib/32/libc.a(lib_a-wctob.o)
 .debug_info    0x00000000000ae383      0xff7 /usr/local/xenon/xenon/lib/32/libc.a(lib_a-wctomb_r.o)
 .debug_info    0x00000000000af37a      0xa2c /usr/local/xenon/xenon/lib/32/libc.a(lib_a-writer.o)
 .debug_info    0x00000000000afda6      0xbf3 /usr/local/xenon/xenon/lib/32/libc.a(lib_a-wsetup.o)
 .debug_info    0x00000000000b0999      0xa0b /usr/local/xenon/xenon/lib/32/libc.a(lib_a-__call_atexit.o)
 .debug_info    0x00000000000b13a4      0x9d7 /usr/local/xenon/xenon/lib/32/libc.a(lib_a-closer.o)
 .debug_info    0x00000000000b1d7b      0x991 /usr/local/xenon/xenon/lib/32/libc.a(lib_a-div.o)
 .debug_info    0x00000000000b270c     0x1a1f /usr/local/xenon/xenon/lib/32/libc.a(lib_a-dtoa.o)
 .debug_info    0x00000000000b412b      0x9fa /usr/local/xenon/xenon/lib/32/libc.a(lib_a-flags.o)
 .debug_info    0x00000000000b4b25      0xe22 /usr/local/xenon/xenon/lib/32/libc.a(lib_a-fputwc.o)
 .debug_info    0x00000000000b5947      0xecc /usr/local/xenon/xenon/lib/32/libc.a(lib_a-fvwrite.o)
 .debug_info    0x00000000000b6813      0xaad /usr/local/xenon/xenon/lib/32/libc.a(lib_a-getenv_r.o)
 .debug_info    0x00000000000b72c0      0xa38 /usr/local/xenon/xenon/lib/32/libc.a(lib_a-gettimeofdayr.o)
 .debug_info    0x00000000000b7cf8      0xa6d /usr/local/xenon/xenon/lib/32/libc.a(lib_a-gettzinfo.o)
 .debug_info    0x00000000000b8765      0xb3e /usr/local/xenon/xenon/lib/32/libc.a(lib_a-gmtime_r.o)
 .debug_info    0x00000000000b92a3      0x9d7 /usr/local/xenon/xenon/lib/32/libc.a(lib_a-isattyr.o)
 .debug_info    0x00000000000b9c7a      0xf49 /usr/local/xenon/xenon/lib/32/libc.a(lib_a-localeconv.o)
 .debug_info    0x00000000000babc3      0xa0d /usr/local/xenon/xenon/lib/32/libc.a(lib_a-lseekr.o)
 .debug_info    0x00000000000bb5d0      0xb51 /usr/local/xenon/xenon/lib/32/libc.a(lib_a-mbsnrtowcs.o)
 .debug_info    0x00000000000bc121      0x9e3 /usr/local/xenon/xenon/lib/32/libc.a(lib_a-memchr.o)
 .debug_info    0x00000000000bcb04     0x2061 /usr/local/xenon/xenon/lib/32/libc.a(lib_a-mprec.o)
 .debug_info    0x00000000000beb65      0xd09 /usr/local/xenon/xenon/lib/32/libc.a(lib_a-putc.o)
 .debug_info    0x00000000000bf86e      0xa25 /usr/local/xenon/xenon/lib/32/libc.a(lib_a-readr.o)
 .debug_info    0x00000000000c0293      0xeec /usr/local/xenon/xenon/lib/32/libc.a(lib_a-reallocr.o)
 .debug_info    0x00000000000c117f      0xd06 /usr/local/xenon/xenon/lib/32/libc.a(lib_a-siscanf.o)
 .debug_info    0x00000000000c1e85     0x11e8 /usr/local/xenon/xenon/lib/32/libc.a(lib_a-strtoul.o)
 .debug_info    0x00000000000c306d     0x1921 /usr/local/xenon/xenon/lib/32/libc.a(lib_a-svfiprintf.o)
 .debug_info    0x00000000000c498e     0x1c05 /usr/local/xenon/xenon/lib/32/libc.a(lib_a-svfiscanf.o)
 .debug_info    0x00000000000c6593      0xd72 /usr/local/xenon/xenon/lib/32/libc.a(lib_a-ungetc.o)
 .debug_info    0x00000000000c7305      0xcaa /usr/local/xenon/xenon/lib/32/libc.a(lib_a-wbuf.o)
 .debug_info    0x00000000000c7faf      0xc2f /usr/local/xenon/xenon/lib/32/libc.a(lib_a-callocr.o)
 .debug_info    0x00000000000c8bde       0x6c /usr/local/xenon/xenon/lib/32/libc.a(lib_a-environ.o)
 .debug_info    0x00000000000c8c4a      0x961 /usr/local/xenon/xenon/lib/32/libc.a(lib_a-envlock.o)
 .debug_info    0x00000000000c95ab       0xcf /usr/local/xenon/xenon/lib/32/libc.a(lib_a-iswspace.o)
 .debug_info    0x00000000000c967a      0xec5 /usr/local/xenon/xenon/lib/32/libc.a(lib_a-iswspace_l.o)
 .debug_info    0x00000000000ca53f      0xb93 /usr/local/xenon/xenon/lib/32/libc.a(lib_a-sccl.o)
 .debug_info    0x00000000000cb0d2     0x11e8 /usr/local/xenon/xenon/lib/32/libc.a(lib_a-strtol.o)
 .debug_info    0x00000000000cc2ba     0x11f0 /usr/local/xenon/xenon/lib/32/libc.a(lib_a-strtoll.o)
 .debug_info    0x00000000000cd4aa     0x11f0 /usr/local/xenon/xenon/lib/32/libc.a(lib_a-strtoull.o)
 .debug_info    0x00000000000ce69a      0xac7 /usr/local/xenon/lib/gcc/xenon/9.2.0/32/libgcc.a(_divdi3.o)
 .debug_info    0x00000000000cf161      0xab7 /usr/local/xenon/lib/gcc/xenon/9.2.0/32/libgcc.a(_moddi3.o)
 .debug_info    0x00000000000cfc18      0xa81 /usr/local/xenon/lib/gcc/xenon/9.2.0/32/libgcc.a(_udivdi3.o)
 .debug_info    0x00000000000d0699      0xaa0 /usr/local/xenon/lib/gcc/xenon/9.2.0/32/libgcc.a(_umoddi3.o)

.debug_abbrev   0x0000000000000000    0x21385
 .debug_abbrev  0x0000000000000000      0x182 /usr/local/xenon/lib/gcc/xenon/9.2.0/../../../../xenon/lib/../lib/crt1.o
 .debug_abbrev  0x0000000000000182      0x3ea main.o
 .debug_abbrev  0x000000000000056c       0x80 /usr/local/xenon/usr/lib/libxenon.a(argv.o)
 .debug_abbrev  0x00000000000005ec      0x6dc /usr/local/xenon/usr/lib/libxenon.a(ata.o)
 .debug_abbrev  0x0000000000000cc8      0x68e /usr/local/xenon/usr/lib/libxenon.a(newlib.o)
 .debug_abbrev  0x0000000000001356      0x41a /usr/local/xenon/usr/lib/libxenon.a(xenon_syscalls.o)
 .debug_abbrev  0x0000000000001770      0x30f /usr/local/xenon/usr/lib/libxenon.a(c_except.o)
 .debug_abbrev  0x0000000000001a7f      0x2eb /usr/local/xenon/usr/lib/libxenon.a(vm.o)
 .debug_abbrev  0x0000000000001d6a      0x117 /usr/local/xenon/usr/lib/libxenon.a(time.o)
 .debug_abbrev  0x0000000000001e81      0x36b /usr/local/xenon/usr/lib/libxenon.a(usbmain.o)
 .debug_abbrev  0x00000000000021ec      0x744 /usr/local/xenon/usr/lib/libxenon.a(tinyehci.o)
 .debug_abbrev  0x0000000000002930      0x2e7 /usr/local/xenon/usr/lib/libxenon.a(debug.o)
 .debug_abbrev  0x0000000000002c17      0x416 /usr/local/xenon/usr/lib/libxenon.a(xenon_smc.o)
 .debug_abbrev  0x000000000000302d      0x4f4 /usr/local/xenon/usr/lib/libxenon.a(xenon_power.o)
 .debug_abbrev  0x0000000000003521       0xa7 /usr/local/xenon/usr/lib/libxenon.a(xenon_secotp.o)
 .debug_abbrev  0x00000000000035c8       0xe0 /usr/local/xenon/usr/lib/libxenon.a(xenon_uart.o)
 .debug_abbrev  0x00000000000036a8      0x4e4 /usr/local/xenon/usr/lib/libxenon.a(xenon_sfcx.o)
 .debug_abbrev  0x0000000000003b8c      0x36d /usr/local/xenon/usr/lib/libxenon.a(xenon_config.o)
 .debug_abbrev  0x0000000000003ef9      0x59f /usr/local/xenon/usr/lib/libxenon.a(xenos.o)
 .debug_abbrev  0x0000000000004498      0x478 /usr/local/xenon/usr/lib/libxenon.a(xenos_edid.o)
 .debug_abbrev  0x0000000000004910      0x4c1 /usr/local/xenon/usr/lib/libxenon.a(enet.o)
 .debug_abbrev  0x0000000000004dd1      0x468 /usr/local/xenon/usr/lib/libxenon.a(xb360.o)
 .debug_abbrev  0x0000000000005239      0x3e4 /usr/local/xenon/usr/lib/libxenon.a(console.o)
 .debug_abbrev  0x000000000000561d      0x3f5 /usr/local/xenon/usr/lib/libxenon.a(lib_malloc.o)
 .debug_abbrev  0x0000000000005a12       0xc5 /usr/local/xenon/usr/lib/libxenon.a(io.o)
 .debug_abbrev  0x0000000000005ad7      0x426 /usr/local/xenon/usr/lib/libxenon.a(ohci.o)
 .debug_abbrev  0x0000000000005efd      0x4ad /usr/local/xenon/usr/lib/libxenon.a(usbd.o)
 .debug_abbrev  0x00000000000063aa      0x29c /usr/local/xenon/usr/lib/libxenon.a(usbdevs.o)
 .debug_abbrev  0x0000000000006646      0x34a /usr/local/xenon/usr/lib/libxenon.a(usbhid.o)
 .debug_abbrev  0x0000000000006990      0x4a5 /usr/local/xenon/usr/lib/libxenon.a(usbhub.o)
 .debug_abbrev  0x0000000000006e35      0x331 /usr/local/xenon/usr/lib/libxenon.a(usb_os.o)
 .debug_abbrev  0x0000000000007166       0xee /usr/local/xenon/usr/lib/libxenon.a(xenon_gpio.o)
 .debug_abbrev  0x0000000000007254      0x34f /usr/local/xenon/usr/lib/libxenon.a(mem.o)
 .debug_abbrev  0x00000000000075a3      0x47e /usr/local/xenon/usr/lib/libxenon.a(pbuf.o)
 .debug_abbrev  0x0000000000007a21      0x1fa /usr/local/xenon/usr/lib/libxenon.a(stats.o)
 .debug_abbrev  0x0000000000007c1b      0x509 /usr/local/xenon/usr/lib/libxenon.a(etharp.o)
 .debug_abbrev  0x0000000000008124      0x54f /usr/local/xenon/usr/lib/libxenon.a(dhcp.o)
 .debug_abbrev  0x0000000000008673      0x2f9 /usr/local/xenon/usr/lib/libxenon.a(hmac_sha1.o)
 .debug_abbrev  0x000000000000896c       0xc7 /usr/local/xenon/usr/lib/libxenon.a(rc4.o)
 .debug_abbrev  0x0000000000008a33      0x293 /usr/local/xenon/usr/lib/libxenon.a(sha1.o)
 .debug_abbrev  0x0000000000008cc6      0x293 /usr/local/xenon/usr/lib/libxenon.a(lib_queue.o)
 .debug_abbrev  0x0000000000008f59      0x23f /usr/local/xenon/usr/lib/libxenon.a(dummy.o)
 .debug_abbrev  0x0000000000009198      0x454 /usr/local/xenon/usr/lib/libxenon.a(usbctrl.o)
 .debug_abbrev  0x00000000000095ec      0x3bf /usr/local/xenon/usr/lib/libxenon.a(usbdebug.o)
 .debug_abbrev  0x00000000000099ab      0x498 /usr/local/xenon/usr/lib/libxenon.a(dns.o)
 .debug_abbrev  0x0000000000009e43      0x2e3 /usr/local/xenon/usr/lib/libxenon.a(memp.o)
 .debug_abbrev  0x000000000000a126      0x44b /usr/local/xenon/usr/lib/libxenon.a(netif.o)
 .debug_abbrev  0x000000000000a571      0x5b6 /usr/local/xenon/usr/lib/libxenon.a(tcp.o)
 .debug_abbrev  0x000000000000ab27      0x327 /usr/local/xenon/usr/lib/libxenon.a(ip_addr.o)
 .debug_abbrev  0x000000000000ae4e      0x429 /usr/local/xenon/usr/lib/libxenon.a(ip.o)
 .debug_abbrev  0x000000000000b277      0x4d9 /usr/local/xenon/usr/lib/libxenon.a(ip_frag.o)
 .debug_abbrev  0x000000000000b750      0x566 /usr/local/xenon/usr/lib/libxenon.a(tcp_out.o)
 .debug_abbrev  0x000000000000bcb6      0x42d /usr/local/xenon/usr/lib/libxenon.a(udp.o)
 .debug_abbrev  0x000000000000c0e3      0x377 /usr/local/xenon/usr/lib/libxenon.a(raw.o)
 .debug_abbrev  0x000000000000c45a      0x20f /usr/local/xenon/usr/lib/libxenon.a(timers.o)
 .debug_abbrev  0x000000000000c669      0x15e /usr/local/xenon/usr/lib/libxenon.a(input.o)
 .debug_abbrev  0x000000000000c7c7      0x48e /usr/local/xenon/usr/lib/libxenon.a(tcp_in.o)
 .debug_abbrev  0x000000000000cc55      0x2ce /usr/local/xenon/usr/lib/libxenon.a(inet_chksum.o)
 .debug_abbrev  0x000000000000cf23      0x388 /usr/local/xenon/usr/lib/libxenon.a(icmp.o)
 .debug_abbrev  0x000000000000d2ab      0x3f4 /usr/local/xenon/usr/lib/libfat.a(libfat.o)
 .debug_abbrev  0x000000000000d69f      0x561 /usr/local/xenon/usr/lib/libfat.a(partition.o)
 .debug_abbrev  0x000000000000dc00      0x4df /usr/local/xenon/usr/lib/libfat.a(cache.o)
 .debug_abbrev  0x000000000000e0df      0x58f /usr/local/xenon/usr/lib/libfat.a(directory.o)
 .debug_abbrev  0x000000000000e66e       0xfa /usr/local/xenon/usr/lib/libfat.a(disc.o)
 .debug_abbrev  0x000000000000e768      0x414 /usr/local/xenon/usr/lib/libfat.a(fatdir.o)
 .debug_abbrev  0x000000000000eb7c      0x52b /usr/local/xenon/usr/lib/libfat.a(fatfile.o)
 .debug_abbrev  0x000000000000f0a7      0x425 /usr/local/xenon/usr/lib/libfat.a(file_allocation_table.o)
 .debug_abbrev  0x000000000000f4cc      0x240 /usr/local/xenon/usr/lib/libfat.a(filetime.o)
 .debug_abbrev  0x000000000000f70c       0xc7 /usr/local/xenon/usr/lib/libfat.a(lock.o)
 .debug_abbrev  0x000000000000f7d3       0x14 /usr/local/xenon/lib/gcc/xenon/9.2.0/32/libgcc.a(crtsavgpr.o)
 .debug_abbrev  0x000000000000f7e7       0x14 /usr/local/xenon/lib/gcc/xenon/9.2.0/32/libgcc.a(crtresxgpr.o)
 .debug_abbrev  0x000000000000f7fb      0x66c /usr/local/xenon/lib/gcc/xenon/9.2.0/32/libgcc.a(unwind-dw2-fde-dip.o)
 .debug_abbrev  0x000000000000fe67      0x23d /usr/local/xenon/xenon/lib/32/libc.a(lib_a-assert.o)
 .debug_abbrev  0x00000000000100a4      0x1b6 /usr/local/xenon/xenon/lib/32/libc.a(lib_a-ctype_.o)
 .debug_abbrev  0x000000000001025a      0x1d6 /usr/local/xenon/xenon/lib/32/libc.a(lib_a-errno.o)
 .debug_abbrev  0x0000000000010430      0x21f /usr/local/xenon/xenon/lib/32/libc.a(lib_a-exit.o)
 .debug_abbrev  0x000000000001064f      0x329 /usr/local/xenon/xenon/lib/32/libc.a(lib_a-fclose.o)
 .debug_abbrev  0x0000000000010978      0x311 /usr/local/xenon/xenon/lib/32/libc.a(lib_a-fflush.o)
 .debug_abbrev  0x0000000000010c89      0x42c /usr/local/xenon/xenon/lib/32/libc.a(lib_a-findfp.o)
 .debug_abbrev  0x00000000000110b5      0x25e /usr/local/xenon/xenon/lib/32/libc.a(lib_a-fiprintf.o)
 .debug_abbrev  0x0000000000011313      0x2db /usr/local/xenon/xenon/lib/32/libc.a(lib_a-fopen.o)
 .debug_abbrev  0x00000000000115ee      0x310 /usr/local/xenon/xenon/lib/32/libc.a(lib_a-fread.o)
 .debug_abbrev  0x00000000000118fe      0x2c9 /usr/local/xenon/xenon/lib/32/libc.a(lib_a-freer.o)
 .debug_abbrev  0x0000000000011bc7      0x2c2 /usr/local/xenon/xenon/lib/32/libc.a(lib_a-fseek.o)
 .debug_abbrev  0x0000000000011e89      0x33a /usr/local/xenon/xenon/lib/32/libc.a(lib_a-fseeko.o)
 .debug_abbrev  0x00000000000121c3      0x239 /usr/local/xenon/xenon/lib/32/libc.a(lib_a-fstatr.o)
 .debug_abbrev  0x00000000000123fc      0x2b5 /usr/local/xenon/xenon/lib/32/libc.a(lib_a-ftell.o)
 .debug_abbrev  0x00000000000126b1      0x283 /usr/local/xenon/xenon/lib/32/libc.a(lib_a-ftello.o)
 .debug_abbrev  0x0000000000012934      0x251 /usr/local/xenon/xenon/lib/32/libc.a(lib_a-fwalk.o)
 .debug_abbrev  0x0000000000012b85      0x2cf /usr/local/xenon/xenon/lib/32/libc.a(lib_a-fwrite.o)
 .debug_abbrev  0x0000000000012e54      0x1b8 /usr/local/xenon/xenon/lib/32/libc.a(lib_a-impure.o)
 .debug_abbrev  0x000000000001300c      0x272 /usr/local/xenon/xenon/lib/32/libc.a(lib_a-lcltime_r.o)
 .debug_abbrev  0x000000000001327e      0x2e8 /usr/local/xenon/xenon/lib/32/libc.a(lib_a-locale.o)
 .debug_abbrev  0x0000000000013566      0x334 /usr/local/xenon/xenon/lib/32/libc.a(lib_a-makebuf.o)
 .debug_abbrev  0x000000000001389a      0x214 /usr/local/xenon/xenon/lib/32/libc.a(lib_a-malign.o)
 .debug_abbrev  0x0000000000013aae      0x275 /usr/local/xenon/xenon/lib/32/libc.a(lib_a-malignr.o)
 .debug_abbrev  0x0000000000013d23      0x230 /usr/local/xenon/xenon/lib/32/libc.a(lib_a-malloc.o)
 .debug_abbrev  0x0000000000013f53      0x321 /usr/local/xenon/xenon/lib/32/libc.a(lib_a-mallocr.o)
 .debug_abbrev  0x0000000000014274      0x242 /usr/local/xenon/xenon/lib/32/libc.a(lib_a-mbrtowc.o)
 .debug_abbrev  0x00000000000144b6      0x220 /usr/local/xenon/xenon/lib/32/libc.a(lib_a-mbsrtowcs.o)
 .debug_abbrev  0x00000000000146d6      0x281 /usr/local/xenon/xenon/lib/32/libc.a(lib_a-mbtowc_r.o)
 .debug_abbrev  0x0000000000014957      0x1ed /usr/local/xenon/xenon/lib/32/libc.a(lib_a-memcmp.o)
 .debug_abbrev  0x0000000000014b44      0x232 /usr/local/xenon/xenon/lib/32/libc.a(lib_a-memcpy.o)
 .debug_abbrev  0x0000000000014d76      0x22b /usr/local/xenon/xenon/lib/32/libc.a(lib_a-memmove.o)
 .debug_abbrev  0x0000000000014fa1      0x217 /usr/local/xenon/xenon/lib/32/libc.a(lib_a-memset.o)
 .debug_abbrev  0x00000000000151b8      0x2bf /usr/local/xenon/xenon/lib/32/libc.a(lib_a-mktime.o)
 .debug_abbrev  0x0000000000015477      0x1c0 /usr/local/xenon/xenon/lib/32/libc.a(lib_a-month_lengths.o)
 .debug_abbrev  0x0000000000015637      0x239 /usr/local/xenon/xenon/lib/32/libc.a(lib_a-openr.o)
 .debug_abbrev  0x0000000000015870      0x2bb /usr/local/xenon/xenon/lib/32/libc.a(lib_a-printf.o)
 .debug_abbrev  0x0000000000015b2b      0x26b /usr/local/xenon/xenon/lib/32/libc.a(lib_a-putchar.o)
 .debug_abbrev  0x0000000000015d96      0x2c7 /usr/local/xenon/xenon/lib/32/libc.a(lib_a-puts.o)
 .debug_abbrev  0x000000000001605d      0x2ba /usr/local/xenon/xenon/lib/32/libc.a(lib_a-reent.o)
 .debug_abbrev  0x0000000000016317      0x2c3 /usr/local/xenon/xenon/lib/32/libc.a(lib_a-refill.o)
 .debug_abbrev  0x00000000000165da      0x250 /usr/local/xenon/xenon/lib/32/libc.a(lib_a-sbrkr.o)
 .debug_abbrev  0x000000000001682a      0x2c3 /usr/local/xenon/xenon/lib/32/libc.a(lib_a-snprintf.o)
 .debug_abbrev  0x0000000000016aed      0x2bb /usr/local/xenon/xenon/lib/32/libc.a(lib_a-sprintf.o)
 .debug_abbrev  0x0000000000016da8      0x2ba /usr/local/xenon/xenon/lib/32/libc.a(lib_a-stdio.o)
 .debug_abbrev  0x0000000000017062      0x1ef /usr/local/xenon/xenon/lib/32/libc.a(lib_a-stpcpy.o)
 .debug_abbrev  0x0000000000017251      0x22c /usr/local/xenon/xenon/lib/32/libc.a(lib_a-strcat.o)
 .debug_abbrev  0x000000000001747d      0x1fc /usr/local/xenon/xenon/lib/32/libc.a(lib_a-strchr.o)
 .debug_abbrev  0x0000000000017679      0x1e8 /usr/local/xenon/xenon/lib/32/libc.a(lib_a-strcmp.o)
 .debug_abbrev  0x0000000000017861      0x20d /usr/local/xenon/xenon/lib/32/libc.a(lib_a-strcpy.o)
 .debug_abbrev  0x0000000000017a6e      0x1e8 /usr/local/xenon/xenon/lib/32/libc.a(lib_a-strlen.o)
 .debug_abbrev  0x0000000000017c56       0xcf /usr/local/xenon/xenon/lib/32/libc.a(lib_a-strncasecmp.o)
 .debug_abbrev  0x0000000000017d25      0x1e8 /usr/local/xenon/xenon/lib/32/libc.a(lib_a-strncmp.o)
 .debug_abbrev  0x0000000000017f0d      0x223 /usr/local/xenon/xenon/lib/32/libc.a(lib_a-strncpy.o)
 .debug_abbrev  0x0000000000018130      0x1e6 /usr/local/xenon/xenon/lib/32/libc.a(lib_a-strnlen.o)
 .debug_abbrev  0x0000000000018316      0x1f7 /usr/local/xenon/xenon/lib/32/libc.a(lib_a-strpbrk.o)
 .debug_abbrev  0x000000000001850d      0x222 /usr/local/xenon/xenon/lib/32/libc.a(lib_a-strrchr.o)
 .debug_abbrev  0x000000000001872f      0x426 /usr/local/xenon/xenon/lib/32/libc.a(lib_a-svfprintf.o)
 .debug_abbrev  0x0000000000018b55      0x222 /usr/local/xenon/xenon/lib/32/libc.a(lib_a-time.o)
 .debug_abbrev  0x0000000000018d77      0x1fe /usr/local/xenon/xenon/lib/32/libc.a(lib_a-towlower.o)
 .debug_abbrev  0x0000000000018f75      0x1fe /usr/local/xenon/xenon/lib/32/libc.a(lib_a-towupper.o)
 .debug_abbrev  0x0000000000019173      0x245 /usr/local/xenon/xenon/lib/32/libc.a(lib_a-tzcalc_limits.o)
 .debug_abbrev  0x00000000000193b8      0x1fa /usr/local/xenon/xenon/lib/32/libc.a(lib_a-tzlock.o)
 .debug_abbrev  0x00000000000195b2      0x1fd /usr/local/xenon/xenon/lib/32/libc.a(lib_a-tzset.o)
 .debug_abbrev  0x00000000000197af      0x29b /usr/local/xenon/xenon/lib/32/libc.a(lib_a-tzset_r.o)
 .debug_abbrev  0x0000000000019a4a      0x1ba /usr/local/xenon/xenon/lib/32/libc.a(lib_a-tzvars.o)
 .debug_abbrev  0x0000000000019c04      0x481 /usr/local/xenon/xenon/lib/32/libc.a(lib_a-vfiprintf.o)
 .debug_abbrev  0x000000000001a085      0x477 /usr/local/xenon/xenon/lib/32/libc.a(lib_a-vfprintf.o)
 .debug_abbrev  0x000000000001a4fc      0x2bb /usr/local/xenon/xenon/lib/32/libc.a(lib_a-vsprintf.o)
 .debug_abbrev  0x000000000001a7b7      0x253 /usr/local/xenon/xenon/lib/32/libc.a(lib_a-wcrtomb.o)
 .debug_abbrev  0x000000000001aa0a      0x25e /usr/local/xenon/xenon/lib/32/libc.a(lib_a-wctob.o)
 .debug_abbrev  0x000000000001ac68      0x269 /usr/local/xenon/xenon/lib/32/libc.a(lib_a-wctomb_r.o)
 .debug_abbrev  0x000000000001aed1      0x22a /usr/local/xenon/xenon/lib/32/libc.a(lib_a-writer.o)
 .debug_abbrev  0x000000000001b0fb      0x283 /usr/local/xenon/xenon/lib/32/libc.a(lib_a-wsetup.o)
 .debug_abbrev  0x000000000001b37e      0x25b /usr/local/xenon/xenon/lib/32/libc.a(lib_a-__call_atexit.o)
 .debug_abbrev  0x000000000001b5d9      0x225 /usr/local/xenon/xenon/lib/32/libc.a(lib_a-closer.o)
 .debug_abbrev  0x000000000001b7fe      0x20a /usr/local/xenon/xenon/lib/32/libc.a(lib_a-div.o)
 .debug_abbrev  0x000000000001ba08      0x333 /usr/local/xenon/xenon/lib/32/libc.a(lib_a-dtoa.o)
 .debug_abbrev  0x000000000001bd3b      0x225 /usr/local/xenon/xenon/lib/32/libc.a(lib_a-flags.o)
 .debug_abbrev  0x000000000001bf60      0x36e /usr/local/xenon/xenon/lib/32/libc.a(lib_a-fputwc.o)
 .debug_abbrev  0x000000000001c2ce      0x2ab /usr/local/xenon/xenon/lib/32/libc.a(lib_a-fvwrite.o)
 .debug_abbrev  0x000000000001c579      0x261 /usr/local/xenon/xenon/lib/32/libc.a(lib_a-getenv_r.o)
 .debug_abbrev  0x000000000001c7da      0x239 /usr/local/xenon/xenon/lib/32/libc.a(lib_a-gettimeofdayr.o)
 .debug_abbrev  0x000000000001ca13      0x1e2 /usr/local/xenon/xenon/lib/32/libc.a(lib_a-gettzinfo.o)
 .debug_abbrev  0x000000000001cbf5      0x23b /usr/local/xenon/xenon/lib/32/libc.a(lib_a-gmtime_r.o)
 .debug_abbrev  0x000000000001ce30      0x225 /usr/local/xenon/xenon/lib/32/libc.a(lib_a-isattyr.o)
 .debug_abbrev  0x000000000001d055      0x27d /usr/local/xenon/xenon/lib/32/libc.a(lib_a-localeconv.o)
 .debug_abbrev  0x000000000001d2d2      0x239 /usr/local/xenon/xenon/lib/32/libc.a(lib_a-lseekr.o)
 .debug_abbrev  0x000000000001d50b      0x264 /usr/local/xenon/xenon/lib/32/libc.a(lib_a-mbsnrtowcs.o)
 .debug_abbrev  0x000000000001d76f      0x215 /usr/local/xenon/xenon/lib/32/libc.a(lib_a-memchr.o)
 .debug_abbrev  0x000000000001d984      0x41c /usr/local/xenon/xenon/lib/32/libc.a(lib_a-mprec.o)
 .debug_abbrev  0x000000000001dda0      0x2ff /usr/local/xenon/xenon/lib/32/libc.a(lib_a-putc.o)
 .debug_abbrev  0x000000000001e09f      0x225 /usr/local/xenon/xenon/lib/32/libc.a(lib_a-readr.o)
 .debug_abbrev  0x000000000001e2c4      0x29f /usr/local/xenon/xenon/lib/32/libc.a(lib_a-reallocr.o)
 .debug_abbrev  0x000000000001e563      0x2a3 /usr/local/xenon/xenon/lib/32/libc.a(lib_a-siscanf.o)
 .debug_abbrev  0x000000000001e806      0x2d3 /usr/local/xenon/xenon/lib/32/libc.a(lib_a-strtoul.o)
 .debug_abbrev  0x000000000001ead9      0x363 /usr/local/xenon/xenon/lib/32/libc.a(lib_a-svfiprintf.o)
 .debug_abbrev  0x000000000001ee3c      0x43f /usr/local/xenon/xenon/lib/32/libc.a(lib_a-svfiscanf.o)
 .debug_abbrev  0x000000000001f27b      0x350 /usr/local/xenon/xenon/lib/32/libc.a(lib_a-ungetc.o)
 .debug_abbrev  0x000000000001f5cb      0x2c3 /usr/local/xenon/xenon/lib/32/libc.a(lib_a-wbuf.o)
 .debug_abbrev  0x000000000001f88e      0x275 /usr/local/xenon/xenon/lib/32/libc.a(lib_a-callocr.o)
 .debug_abbrev  0x000000000001fb03       0x5a /usr/local/xenon/xenon/lib/32/libc.a(lib_a-environ.o)
 .debug_abbrev  0x000000000001fb5d      0x203 /usr/local/xenon/xenon/lib/32/libc.a(lib_a-envlock.o)
 .debug_abbrev  0x000000000001fd60       0x98 /usr/local/xenon/xenon/lib/32/libc.a(lib_a-iswspace.o)
 .debug_abbrev  0x000000000001fdf8      0x1f2 /usr/local/xenon/xenon/lib/32/libc.a(lib_a-iswspace_l.o)
 .debug_abbrev  0x000000000001ffea      0x22f /usr/local/xenon/xenon/lib/32/libc.a(lib_a-sccl.o)
 .debug_abbrev  0x0000000000020219      0x2d3 /usr/local/xenon/xenon/lib/32/libc.a(lib_a-strtol.o)
 .debug_abbrev  0x00000000000204ec      0x2e8 /usr/local/xenon/xenon/lib/32/libc.a(lib_a-strtoll.o)
 .debug_abbrev  0x00000000000207d4      0x2e8 /usr/local/xenon/xenon/lib/32/libc.a(lib_a-strtoull.o)
 .debug_abbrev  0x0000000000020abc      0x234 /usr/local/xenon/lib/gcc/xenon/9.2.0/32/libgcc.a(_divdi3.o)
 .debug_abbrev  0x0000000000020cf0      0x234 /usr/local/xenon/lib/gcc/xenon/9.2.0/32/libgcc.a(_moddi3.o)
 .debug_abbrev  0x0000000000020f24      0x220 /usr/local/xenon/lib/gcc/xenon/9.2.0/32/libgcc.a(_udivdi3.o)
 .debug_abbrev  0x0000000000021144      0x241 /usr/local/xenon/lib/gcc/xenon/9.2.0/32/libgcc.a(_umoddi3.o)

.debug_loc      0x0000000000000000    0x50e79
 .debug_loc     0x0000000000000000       0x15 /usr/local/xenon/lib/gcc/xenon/9.2.0/../../../../xenon/lib/../lib/crt1.o
 .debug_loc     0x0000000000000015      0x431 main.o
 .debug_loc     0x0000000000000446     0x1a9b /usr/local/xenon/usr/lib/libxenon.a(ata.o)
 .debug_loc     0x0000000000001ee1     0x248c /usr/local/xenon/usr/lib/libxenon.a(newlib.o)
 .debug_loc     0x000000000000436d      0x337 /usr/local/xenon/usr/lib/libxenon.a(xenon_syscalls.o)
 .debug_loc     0x00000000000046a4      0x29d /usr/local/xenon/usr/lib/libxenon.a(c_except.o)
 .debug_loc     0x0000000000004941      0x355 /usr/local/xenon/usr/lib/libxenon.a(vm.o)
 .debug_loc     0x0000000000004c96      0x11e /usr/local/xenon/usr/lib/libxenon.a(time.o)
 .debug_loc     0x0000000000004db4       0xd2 /usr/local/xenon/usr/lib/libxenon.a(usbmain.o)
 .debug_loc     0x0000000000004e86     0x4d75 /usr/local/xenon/usr/lib/libxenon.a(tinyehci.o)
 .debug_loc     0x0000000000009bfb      0x2e0 /usr/local/xenon/usr/lib/libxenon.a(debug.o)
 .debug_loc     0x0000000000009edb      0x569 /usr/local/xenon/usr/lib/libxenon.a(xenon_smc.o)
 .debug_loc     0x000000000000a444      0xbde /usr/local/xenon/usr/lib/libxenon.a(xenon_power.o)
 .debug_loc     0x000000000000b022       0x25 /usr/local/xenon/usr/lib/libxenon.a(xenon_secotp.o)
 .debug_loc     0x000000000000b047       0x7a /usr/local/xenon/usr/lib/libxenon.a(xenon_uart.o)
 .debug_loc     0x000000000000b0c1     0x15d9 /usr/local/xenon/usr/lib/libxenon.a(xenon_sfcx.o)
 .debug_loc     0x000000000000c69a       0x68 /usr/local/xenon/usr/lib/libxenon.a(xenon_config.o)
 .debug_loc     0x000000000000c702     0x26a6 /usr/local/xenon/usr/lib/libxenon.a(xenos.o)
 .debug_loc     0x000000000000eda8      0x5e9 /usr/local/xenon/usr/lib/libxenon.a(xenos_edid.o)
 .debug_loc     0x000000000000f391      0x7bc /usr/local/xenon/usr/lib/libxenon.a(enet.o)
 .debug_loc     0x000000000000fb4d      0xd10 /usr/local/xenon/usr/lib/libxenon.a(xb360.o)
 .debug_loc     0x000000000001085d      0x339 /usr/local/xenon/usr/lib/libxenon.a(console.o)
 .debug_loc     0x0000000000010b96      0x4a0 /usr/local/xenon/usr/lib/libxenon.a(lib_malloc.o)
 .debug_loc     0x0000000000011036       0x4a /usr/local/xenon/usr/lib/libxenon.a(io.o)
 .debug_loc     0x0000000000011080     0x2c50 /usr/local/xenon/usr/lib/libxenon.a(ohci.o)
 .debug_loc     0x0000000000013cd0     0x15b7 /usr/local/xenon/usr/lib/libxenon.a(usbd.o)
 .debug_loc     0x0000000000015287      0x187 /usr/local/xenon/usr/lib/libxenon.a(usbdevs.o)
 .debug_loc     0x000000000001540e      0x365 /usr/local/xenon/usr/lib/libxenon.a(usbhid.o)
 .debug_loc     0x0000000000015773      0xba8 /usr/local/xenon/usr/lib/libxenon.a(usbhub.o)
 .debug_loc     0x000000000001631b      0x226 /usr/local/xenon/usr/lib/libxenon.a(usb_os.o)
 .debug_loc     0x0000000000016541      0x19c /usr/local/xenon/usr/lib/libxenon.a(xenon_gpio.o)
 .debug_loc     0x00000000000166dd      0x627 /usr/local/xenon/usr/lib/libxenon.a(mem.o)
 .debug_loc     0x0000000000016d04     0x18de /usr/local/xenon/usr/lib/libxenon.a(pbuf.o)
 .debug_loc     0x00000000000185e2     0x14b4 /usr/local/xenon/usr/lib/libxenon.a(etharp.o)
 .debug_loc     0x0000000000019a96     0x1b4c /usr/local/xenon/usr/lib/libxenon.a(dhcp.o)
 .debug_loc     0x000000000001b5e2      0x532 /usr/local/xenon/usr/lib/libxenon.a(hmac_sha1.o)
 .debug_loc     0x000000000001bb14      0x1b9 /usr/local/xenon/usr/lib/libxenon.a(rc4.o)
 .debug_loc     0x000000000001bccd      0xc87 /usr/local/xenon/usr/lib/libxenon.a(sha1.o)
 .debug_loc     0x000000000001c954      0x1de /usr/local/xenon/usr/lib/libxenon.a(lib_queue.o)
 .debug_loc     0x000000000001cb32       0x4a /usr/local/xenon/usr/lib/libxenon.a(dummy.o)
 .debug_loc     0x000000000001cb7c      0x994 /usr/local/xenon/usr/lib/libxenon.a(usbctrl.o)
 .debug_loc     0x000000000001d510      0x543 /usr/local/xenon/usr/lib/libxenon.a(usbdebug.o)
 .debug_loc     0x000000000001da53      0xc1a /usr/local/xenon/usr/lib/libxenon.a(dns.o)
 .debug_loc     0x000000000001e66d      0x164 /usr/local/xenon/usr/lib/libxenon.a(memp.o)
 .debug_loc     0x000000000001e7d1      0x512 /usr/local/xenon/usr/lib/libxenon.a(netif.o)
 .debug_loc     0x000000000001ece3     0x138f /usr/local/xenon/usr/lib/libxenon.a(tcp.o)
 .debug_loc     0x0000000000020072      0x59e /usr/local/xenon/usr/lib/libxenon.a(ip_addr.o)
 .debug_loc     0x0000000000020610      0xa13 /usr/local/xenon/usr/lib/libxenon.a(ip.o)
 .debug_loc     0x0000000000021023      0xe07 /usr/local/xenon/usr/lib/libxenon.a(ip_frag.o)
 .debug_loc     0x0000000000021e2a     0x1811 /usr/local/xenon/usr/lib/libxenon.a(tcp_out.o)
 .debug_loc     0x000000000002363b      0xa50 /usr/local/xenon/usr/lib/libxenon.a(udp.o)
 .debug_loc     0x000000000002408b      0x381 /usr/local/xenon/usr/lib/libxenon.a(raw.o)
 .debug_loc     0x000000000002440c      0x15c /usr/local/xenon/usr/lib/libxenon.a(input.o)
 .debug_loc     0x0000000000024568      0xc0c /usr/local/xenon/usr/lib/libxenon.a(tcp_in.o)
 .debug_loc     0x0000000000025174      0x93b /usr/local/xenon/usr/lib/libxenon.a(inet_chksum.o)
 .debug_loc     0x0000000000025aaf      0x354 /usr/local/xenon/usr/lib/libxenon.a(icmp.o)
 .debug_loc     0x0000000000025e03      0x6b5 /usr/local/xenon/usr/lib/libfat.a(libfat.o)
 .debug_loc     0x00000000000264b8      0xe1a /usr/local/xenon/usr/lib/libfat.a(partition.o)
 .debug_loc     0x00000000000272d2     0x11c2 /usr/local/xenon/usr/lib/libfat.a(cache.o)
 .debug_loc     0x0000000000028494     0x20ef /usr/local/xenon/usr/lib/libfat.a(directory.o)
 .debug_loc     0x000000000002a583      0xc6d /usr/local/xenon/usr/lib/libfat.a(fatdir.o)
 .debug_loc     0x000000000002b1f0     0x1fdc /usr/local/xenon/usr/lib/libfat.a(fatfile.o)
 .debug_loc     0x000000000002d1cc      0xd45 /usr/local/xenon/usr/lib/libfat.a(file_allocation_table.o)
 .debug_loc     0x000000000002df11       0x4a /usr/local/xenon/usr/lib/libfat.a(filetime.o)
 .debug_loc     0x000000000002df5b     0x2ab9 /usr/local/xenon/lib/gcc/xenon/9.2.0/32/libgcc.a(unwind-dw2-fde-dip.o)
 .debug_loc     0x0000000000030a14      0x188 /usr/local/xenon/xenon/lib/32/libc.a(lib_a-assert.o)
 .debug_loc     0x0000000000030b9c       0x22 /usr/local/xenon/xenon/lib/32/libc.a(lib_a-exit.o)
 .debug_loc     0x0000000000030bbe      0x1ea /usr/local/xenon/xenon/lib/32/libc.a(lib_a-fclose.o)
 .debug_loc     0x0000000000030da8      0x522 /usr/local/xenon/xenon/lib/32/libc.a(lib_a-fflush.o)
 .debug_loc     0x00000000000312ca      0x328 /usr/local/xenon/xenon/lib/32/libc.a(lib_a-findfp.o)
 .debug_loc     0x00000000000315f2       0xfd /usr/local/xenon/xenon/lib/32/libc.a(lib_a-fiprintf.o)
 .debug_loc     0x00000000000316ef      0x249 /usr/local/xenon/xenon/lib/32/libc.a(lib_a-fopen.o)
 .debug_loc     0x0000000000031938      0x651 /usr/local/xenon/xenon/lib/32/libc.a(lib_a-fread.o)
 .debug_loc     0x0000000000031f89      0x731 /usr/local/xenon/xenon/lib/32/libc.a(lib_a-freer.o)
 .debug_loc     0x00000000000326ba      0x1c0 /usr/local/xenon/xenon/lib/32/libc.a(lib_a-fseek.o)
 .debug_loc     0x000000000003287a      0x486 /usr/local/xenon/xenon/lib/32/libc.a(lib_a-fseeko.o)
 .debug_loc     0x0000000000032d00       0xc8 /usr/local/xenon/xenon/lib/32/libc.a(lib_a-fstatr.o)
 .debug_loc     0x0000000000032dc8       0xae /usr/local/xenon/xenon/lib/32/libc.a(lib_a-ftell.o)
 .debug_loc     0x0000000000032e76      0x1d0 /usr/local/xenon/xenon/lib/32/libc.a(lib_a-ftello.o)
 .debug_loc     0x0000000000033046      0x223 /usr/local/xenon/xenon/lib/32/libc.a(lib_a-fwalk.o)
 .debug_loc     0x0000000000033269      0x2d2 /usr/local/xenon/xenon/lib/32/libc.a(lib_a-fwrite.o)
 .debug_loc     0x000000000003353b      0x2c9 /usr/local/xenon/xenon/lib/32/libc.a(lib_a-lcltime_r.o)
 .debug_loc     0x0000000000033804      0x179 /usr/local/xenon/xenon/lib/32/libc.a(lib_a-locale.o)
 .debug_loc     0x000000000003397d      0x3bf /usr/local/xenon/xenon/lib/32/libc.a(lib_a-makebuf.o)
 .debug_loc     0x0000000000033d3c       0x64 /usr/local/xenon/xenon/lib/32/libc.a(lib_a-malign.o)
 .debug_loc     0x0000000000033da0      0x3b1 /usr/local/xenon/xenon/lib/32/libc.a(lib_a-malignr.o)
 .debug_loc     0x0000000000034151       0x64 /usr/local/xenon/xenon/lib/32/libc.a(lib_a-malloc.o)
 .debug_loc     0x00000000000341b5      0xf58 /usr/local/xenon/xenon/lib/32/libc.a(lib_a-mallocr.o)
 .debug_loc     0x000000000003510d      0x365 /usr/local/xenon/xenon/lib/32/libc.a(lib_a-mbrtowc.o)
 .debug_loc     0x0000000000035472      0x19b /usr/local/xenon/xenon/lib/32/libc.a(lib_a-mbsrtowcs.o)
 .debug_loc     0x000000000003560d      0x1a6 /usr/local/xenon/xenon/lib/32/libc.a(lib_a-mbtowc_r.o)
 .debug_loc     0x00000000000357b3      0x13f /usr/local/xenon/xenon/lib/32/libc.a(lib_a-memcmp.o)
 .debug_loc     0x00000000000358f2      0x2dc /usr/local/xenon/xenon/lib/32/libc.a(lib_a-memcpy.o)
 .debug_loc     0x0000000000035bce      0x3c7 /usr/local/xenon/xenon/lib/32/libc.a(lib_a-memmove.o)
 .debug_loc     0x0000000000035f95      0x20f /usr/local/xenon/xenon/lib/32/libc.a(lib_a-memset.o)
 .debug_loc     0x00000000000361a4      0x61e /usr/local/xenon/xenon/lib/32/libc.a(lib_a-mktime.o)
 .debug_loc     0x00000000000367c2       0xfa /usr/local/xenon/xenon/lib/32/libc.a(lib_a-openr.o)
 .debug_loc     0x00000000000368bc       0xc8 /usr/local/xenon/xenon/lib/32/libc.a(lib_a-printf.o)
 .debug_loc     0x0000000000036984       0x91 /usr/local/xenon/xenon/lib/32/libc.a(lib_a-putchar.o)
 .debug_loc     0x0000000000036a15      0x142 /usr/local/xenon/xenon/lib/32/libc.a(lib_a-puts.o)
 .debug_loc     0x0000000000036b57      0x148 /usr/local/xenon/xenon/lib/32/libc.a(lib_a-reent.o)
 .debug_loc     0x0000000000036c9f      0x1b9 /usr/local/xenon/xenon/lib/32/libc.a(lib_a-refill.o)
 .debug_loc     0x0000000000036e58       0x89 /usr/local/xenon/xenon/lib/32/libc.a(lib_a-sbrkr.o)
 .debug_loc     0x0000000000036ee1      0x3e7 /usr/local/xenon/xenon/lib/32/libc.a(lib_a-snprintf.o)
 .debug_loc     0x00000000000372c8      0x11e /usr/local/xenon/xenon/lib/32/libc.a(lib_a-sprintf.o)
 .debug_loc     0x00000000000373e6      0x48a /usr/local/xenon/xenon/lib/32/libc.a(lib_a-stdio.o)
 .debug_loc     0x0000000000037870       0x9a /usr/local/xenon/xenon/lib/32/libc.a(lib_a-stpcpy.o)
 .debug_loc     0x000000000003790a       0xd0 /usr/local/xenon/xenon/lib/32/libc.a(lib_a-strcat.o)
 .debug_loc     0x00000000000379da      0x1f1 /usr/local/xenon/xenon/lib/32/libc.a(lib_a-strchr.o)
 .debug_loc     0x0000000000037bcb      0x102 /usr/local/xenon/xenon/lib/32/libc.a(lib_a-strcmp.o)
 .debug_loc     0x0000000000037ccd      0x142 /usr/local/xenon/xenon/lib/32/libc.a(lib_a-strcpy.o)
 .debug_loc     0x0000000000037e0f       0xca /usr/local/xenon/xenon/lib/32/libc.a(lib_a-strlen.o)
 .debug_loc     0x0000000000037ed9      0x2b7 /usr/local/xenon/xenon/lib/32/libc.a(lib_a-strncasecmp.o)
 .debug_loc     0x0000000000038190      0x131 /usr/local/xenon/xenon/lib/32/libc.a(lib_a-strncmp.o)
 .debug_loc     0x00000000000382c1      0x15b /usr/local/xenon/xenon/lib/32/libc.a(lib_a-strncpy.o)
 .debug_loc     0x000000000003841c       0x6b /usr/local/xenon/xenon/lib/32/libc.a(lib_a-strnlen.o)
 .debug_loc     0x0000000000038487       0xbf /usr/local/xenon/xenon/lib/32/libc.a(lib_a-strpbrk.o)
 .debug_loc     0x0000000000038546       0xf5 /usr/local/xenon/xenon/lib/32/libc.a(lib_a-strrchr.o)
 .debug_loc     0x000000000003863b     0x288d /usr/local/xenon/xenon/lib/32/libc.a(lib_a-svfprintf.o)
 .debug_loc     0x000000000003aec8       0x3f /usr/local/xenon/xenon/lib/32/libc.a(lib_a-time.o)
 .debug_loc     0x000000000003af07       0x48 /usr/local/xenon/xenon/lib/32/libc.a(lib_a-towlower.o)
 .debug_loc     0x000000000003af4f       0x48 /usr/local/xenon/xenon/lib/32/libc.a(lib_a-towupper.o)
 .debug_loc     0x000000000003af97      0x250 /usr/local/xenon/xenon/lib/32/libc.a(lib_a-tzcalc_limits.o)
 .debug_loc     0x000000000003b1e7      0x365 /usr/local/xenon/xenon/lib/32/libc.a(lib_a-tzset_r.o)
 .debug_loc     0x000000000003b54c     0x1ea2 /usr/local/xenon/xenon/lib/32/libc.a(lib_a-vfiprintf.o)
 .debug_loc     0x000000000003d3ee     0x2af2 /usr/local/xenon/xenon/lib/32/libc.a(lib_a-vfprintf.o)
 .debug_loc     0x000000000003fee0      0x14c /usr/local/xenon/xenon/lib/32/libc.a(lib_a-vsprintf.o)
 .debug_loc     0x000000000004002c      0x2d4 /usr/local/xenon/xenon/lib/32/libc.a(lib_a-wcrtomb.o)
 .debug_loc     0x0000000000040300       0x5c /usr/local/xenon/xenon/lib/32/libc.a(lib_a-wctob.o)
 .debug_loc     0x000000000004035c       0xff /usr/local/xenon/xenon/lib/32/libc.a(lib_a-wctomb_r.o)
 .debug_loc     0x000000000004045b       0xfa /usr/local/xenon/xenon/lib/32/libc.a(lib_a-writer.o)
 .debug_loc     0x0000000000040555       0xba /usr/local/xenon/xenon/lib/32/libc.a(lib_a-wsetup.o)
 .debug_loc     0x000000000004060f      0x1ba /usr/local/xenon/xenon/lib/32/libc.a(lib_a-__call_atexit.o)
 .debug_loc     0x00000000000407c9       0x89 /usr/local/xenon/xenon/lib/32/libc.a(lib_a-closer.o)
 .debug_loc     0x0000000000040852       0xbc /usr/local/xenon/xenon/lib/32/libc.a(lib_a-div.o)
 .debug_loc     0x000000000004090e     0x2bce /usr/local/xenon/xenon/lib/32/libc.a(lib_a-dtoa.o)
 .debug_loc     0x00000000000434dc      0x12c /usr/local/xenon/xenon/lib/32/libc.a(lib_a-flags.o)
 .debug_loc     0x0000000000043608      0x4b6 /usr/local/xenon/xenon/lib/32/libc.a(lib_a-fputwc.o)
 .debug_loc     0x0000000000043abe      0x76e /usr/local/xenon/xenon/lib/32/libc.a(lib_a-fvwrite.o)
 .debug_loc     0x000000000004422c      0x22e /usr/local/xenon/xenon/lib/32/libc.a(lib_a-getenv_r.o)
 .debug_loc     0x000000000004445a       0xc8 /usr/local/xenon/xenon/lib/32/libc.a(lib_a-gettimeofdayr.o)
 .debug_loc     0x0000000000044522      0x298 /usr/local/xenon/xenon/lib/32/libc.a(lib_a-gmtime_r.o)
 .debug_loc     0x00000000000447ba       0x89 /usr/local/xenon/xenon/lib/32/libc.a(lib_a-isattyr.o)
 .debug_loc     0x0000000000044843       0x6f /usr/local/xenon/xenon/lib/32/libc.a(lib_a-localeconv.o)
 .debug_loc     0x00000000000448b2       0xfa /usr/local/xenon/xenon/lib/32/libc.a(lib_a-lseekr.o)
 .debug_loc     0x00000000000449ac      0x56a /usr/local/xenon/xenon/lib/32/libc.a(lib_a-mbsnrtowcs.o)
 .debug_loc     0x0000000000044f16      0x1b3 /usr/local/xenon/xenon/lib/32/libc.a(lib_a-memchr.o)
 .debug_loc     0x00000000000450c9     0x2300 /usr/local/xenon/xenon/lib/32/libc.a(lib_a-mprec.o)
 .debug_loc     0x00000000000473c9      0x3c9 /usr/local/xenon/xenon/lib/32/libc.a(lib_a-putc.o)
 .debug_loc     0x0000000000047792       0xfa /usr/local/xenon/xenon/lib/32/libc.a(lib_a-readr.o)
 .debug_loc     0x000000000004788c     0x16a2 /usr/local/xenon/xenon/lib/32/libc.a(lib_a-reallocr.o)
 .debug_loc     0x0000000000048f2e      0x10a /usr/local/xenon/xenon/lib/32/libc.a(lib_a-siscanf.o)
 .debug_loc     0x0000000000049038      0x533 /usr/local/xenon/xenon/lib/32/libc.a(lib_a-strtoul.o)
 .debug_loc     0x000000000004956b     0x1373 /usr/local/xenon/xenon/lib/32/libc.a(lib_a-svfiprintf.o)
 .debug_loc     0x000000000004a8de     0x1a5d /usr/local/xenon/xenon/lib/32/libc.a(lib_a-svfiscanf.o)
 .debug_loc     0x000000000004c33b      0x524 /usr/local/xenon/xenon/lib/32/libc.a(lib_a-ungetc.o)
 .debug_loc     0x000000000004c85f      0x1e7 /usr/local/xenon/xenon/lib/32/libc.a(lib_a-wbuf.o)
 .debug_loc     0x000000000004ca46      0x27a /usr/local/xenon/xenon/lib/32/libc.a(lib_a-callocr.o)
 .debug_loc     0x000000000004ccc0       0x25 /usr/local/xenon/xenon/lib/32/libc.a(lib_a-iswspace.o)
 .debug_loc     0x000000000004cce5       0x42 /usr/local/xenon/xenon/lib/32/libc.a(lib_a-iswspace_l.o)
 .debug_loc     0x000000000004cd27      0x1f4 /usr/local/xenon/xenon/lib/32/libc.a(lib_a-sccl.o)
 .debug_loc     0x000000000004cf1b      0x501 /usr/local/xenon/xenon/lib/32/libc.a(lib_a-strtol.o)
 .debug_loc     0x000000000004d41c      0x688 /usr/local/xenon/xenon/lib/32/libc.a(lib_a-strtoll.o)
 .debug_loc     0x000000000004daa4      0x717 /usr/local/xenon/xenon/lib/32/libc.a(lib_a-strtoull.o)
 .debug_loc     0x000000000004e1bb      0xbf6 /usr/local/xenon/lib/gcc/xenon/9.2.0/32/libgcc.a(_divdi3.o)
 .debug_loc     0x000000000004edb1      0xa0a /usr/local/xenon/lib/gcc/xenon/9.2.0/32/libgcc.a(_moddi3.o)
 .debug_loc     0x000000000004f7bb      0xb67 /usr/local/xenon/lib/gcc/xenon/9.2.0/32/libgcc.a(_udivdi3.o)
 .debug_loc     0x0000000000050322      0xb57 /usr/local/xenon/lib/gcc/xenon/9.2.0/32/libgcc.a(_umoddi3.o)

.debug_aranges  0x0000000000000000     0x28e0
 .debug_aranges
                0x0000000000000000       0x30 /usr/local/xenon/lib/gcc/xenon/9.2.0/../../../../xenon/lib/../lib/crt1.o
 .debug_aranges
                0x0000000000000030       0x28 main.o
 .debug_aranges
                0x0000000000000058       0x20 /usr/local/xenon/usr/lib/libxenon.a(argv.o)
 .debug_aranges
                0x0000000000000078       0xd0 /usr/local/xenon/usr/lib/libxenon.a(ata.o)
 .debug_aranges
                0x0000000000000148      0x258 /usr/local/xenon/usr/lib/libxenon.a(newlib.o)
 .debug_aranges
                0x00000000000003a0       0x50 /usr/local/xenon/usr/lib/libxenon.a(xenon_syscalls.o)
 .debug_aranges
                0x00000000000003f0       0x28 /usr/local/xenon/usr/lib/libxenon.a(c_except.o)
 .debug_aranges
                0x0000000000000418       0x40 /usr/local/xenon/usr/lib/libxenon.a(vm.o)
 .debug_aranges
                0x0000000000000458       0x38 /usr/local/xenon/usr/lib/libxenon.a(time.o)
 .debug_aranges
                0x0000000000000490       0x38 /usr/local/xenon/usr/lib/libxenon.a(usbmain.o)
 .debug_aranges
                0x00000000000004c8      0x228 /usr/local/xenon/usr/lib/libxenon.a(tinyehci.o)
 .debug_aranges
                0x00000000000006f0       0x38 /usr/local/xenon/usr/lib/libxenon.a(debug.o)
 .debug_aranges
                0x0000000000000728       0xb8 /usr/local/xenon/usr/lib/libxenon.a(xenon_smc.o)
 .debug_aranges
                0x00000000000007e0       0x78 /usr/local/xenon/usr/lib/libxenon.a(xenon_power.o)
 .debug_aranges
                0x0000000000000858       0x20 /usr/local/xenon/usr/lib/libxenon.a(xenon_secotp.o)
 .debug_aranges
                0x0000000000000878       0x38 /usr/local/xenon/usr/lib/libxenon.a(xenon_uart.o)
 .debug_aranges
                0x00000000000008b0      0x108 /usr/local/xenon/usr/lib/libxenon.a(xenon_sfcx.o)
 .debug_aranges
                0x00000000000009b8       0x38 /usr/local/xenon/usr/lib/libxenon.a(xenon_config.o)
 .debug_aranges
                0x00000000000009f0       0x90 /usr/local/xenon/usr/lib/libxenon.a(xenos.o)
 .debug_aranges
                0x0000000000000a80       0x38 /usr/local/xenon/usr/lib/libxenon.a(xenos_edid.o)
 .debug_aranges
                0x0000000000000ab8       0x40 /usr/local/xenon/usr/lib/libxenon.a(enet.o)
 .debug_aranges
                0x0000000000000af8       0xd0 /usr/local/xenon/usr/lib/libxenon.a(xb360.o)
 .debug_aranges
                0x0000000000000bc8       0x60 /usr/local/xenon/usr/lib/libxenon.a(console.o)
 .debug_aranges
                0x0000000000000c28       0x58 /usr/local/xenon/usr/lib/libxenon.a(lib_malloc.o)
 .debug_aranges
                0x0000000000000c80       0x38 /usr/local/xenon/usr/lib/libxenon.a(io.o)
 .debug_aranges
                0x0000000000000cb8       0x98 /usr/local/xenon/usr/lib/libxenon.a(ohci.o)
 .debug_aranges
                0x0000000000000d50      0x110 /usr/local/xenon/usr/lib/libxenon.a(usbd.o)
 .debug_aranges
                0x0000000000000e60       0x20 /usr/local/xenon/usr/lib/libxenon.a(usbdevs.o)
 .debug_aranges
                0x0000000000000e80       0x30 /usr/local/xenon/usr/lib/libxenon.a(usbhid.o)
 .debug_aranges
                0x0000000000000eb0       0x78 /usr/local/xenon/usr/lib/libxenon.a(usbhub.o)
 .debug_aranges
                0x0000000000000f28       0x58 /usr/local/xenon/usr/lib/libxenon.a(usb_os.o)
 .debug_aranges
                0x0000000000000f80       0x30 /usr/local/xenon/usr/lib/libxenon.a(xenon_gpio.o)
 .debug_aranges
                0x0000000000000fb0       0x40 /usr/local/xenon/usr/lib/libxenon.a(mem.o)
 .debug_aranges
                0x0000000000000ff0       0xa8 /usr/local/xenon/usr/lib/libxenon.a(pbuf.o)
 .debug_aranges
                0x0000000000001098       0x20 /usr/local/xenon/usr/lib/libxenon.a(stats.o)
 .debug_aranges
                0x00000000000010b8       0x78 /usr/local/xenon/usr/lib/libxenon.a(etharp.o)
 .debug_aranges
                0x0000000000001130       0xe8 /usr/local/xenon/usr/lib/libxenon.a(dhcp.o)
 .debug_aranges
                0x0000000000001218       0x60 /usr/local/xenon/usr/lib/libxenon.a(hmac_sha1.o)
 .debug_aranges
                0x0000000000001278       0x28 /usr/local/xenon/usr/lib/libxenon.a(rc4.o)
 .debug_aranges
                0x00000000000012a0       0x38 /usr/local/xenon/usr/lib/libxenon.a(sha1.o)
 .debug_aranges
                0x00000000000012d8       0x48 /usr/local/xenon/usr/lib/libxenon.a(lib_queue.o)
 .debug_aranges
                0x0000000000001320       0x28 /usr/local/xenon/usr/lib/libxenon.a(dummy.o)
 .debug_aranges
                0x0000000000001348       0x60 /usr/local/xenon/usr/lib/libxenon.a(usbctrl.o)
 .debug_aranges
                0x00000000000013a8       0x48 /usr/local/xenon/usr/lib/libxenon.a(usbdebug.o)
 .debug_aranges
                0x00000000000013f0       0x60 /usr/local/xenon/usr/lib/libxenon.a(dns.o)
 .debug_aranges
                0x0000000000001450       0x30 /usr/local/xenon/usr/lib/libxenon.a(memp.o)
 .debug_aranges
                0x0000000000001480       0x90 /usr/local/xenon/usr/lib/libxenon.a(netif.o)
 .debug_aranges
                0x0000000000001510      0x120 /usr/local/xenon/usr/lib/libxenon.a(tcp.o)
 .debug_aranges
                0x0000000000001630       0x48 /usr/local/xenon/usr/lib/libxenon.a(ip_addr.o)
 .debug_aranges
                0x0000000000001678       0x38 /usr/local/xenon/usr/lib/libxenon.a(ip.o)
 .debug_aranges
                0x00000000000016b0       0x50 /usr/local/xenon/usr/lib/libxenon.a(ip_frag.o)
 .debug_aranges
                0x0000000000001700       0x88 /usr/local/xenon/usr/lib/libxenon.a(tcp_out.o)
 .debug_aranges
                0x0000000000001788       0x68 /usr/local/xenon/usr/lib/libxenon.a(udp.o)
 .debug_aranges
                0x00000000000017f0       0x58 /usr/local/xenon/usr/lib/libxenon.a(raw.o)
 .debug_aranges
                0x0000000000001848       0x20 /usr/local/xenon/usr/lib/libxenon.a(timers.o)
 .debug_aranges
                0x0000000000001868       0x30 /usr/local/xenon/usr/lib/libxenon.a(input.o)
 .debug_aranges
                0x0000000000001898       0x38 /usr/local/xenon/usr/lib/libxenon.a(tcp_in.o)
 .debug_aranges
                0x00000000000018d0       0x40 /usr/local/xenon/usr/lib/libxenon.a(inet_chksum.o)
 .debug_aranges
                0x0000000000001910       0x38 /usr/local/xenon/usr/lib/libxenon.a(icmp.o)
 .debug_aranges
                0x0000000000001948       0x20 /usr/local/xenon/usr/lib/libfat.a(libfat.o)
 .debug_aranges
                0x0000000000001968       0x20 /usr/local/xenon/usr/lib/libfat.a(partition.o)
 .debug_aranges
                0x0000000000001988       0x20 /usr/local/xenon/usr/lib/libfat.a(cache.o)
 .debug_aranges
                0x00000000000019a8       0x20 /usr/local/xenon/usr/lib/libfat.a(directory.o)
 .debug_aranges
                0x00000000000019c8       0x20 /usr/local/xenon/usr/lib/libfat.a(disc.o)
 .debug_aranges
                0x00000000000019e8       0x20 /usr/local/xenon/usr/lib/libfat.a(fatdir.o)
 .debug_aranges
                0x0000000000001a08       0x20 /usr/local/xenon/usr/lib/libfat.a(fatfile.o)
 .debug_aranges
                0x0000000000001a28       0x20 /usr/local/xenon/usr/lib/libfat.a(file_allocation_table.o)
 .debug_aranges
                0x0000000000001a48       0x20 /usr/local/xenon/usr/lib/libfat.a(filetime.o)
 .debug_aranges
                0x0000000000001a68       0x20 /usr/local/xenon/usr/lib/libfat.a(lock.o)
 .debug_aranges
                0x0000000000001a88       0x20 /usr/local/xenon/lib/gcc/xenon/9.2.0/32/libgcc.a(crtsavgpr.o)
 .debug_aranges
                0x0000000000001aa8       0x20 /usr/local/xenon/lib/gcc/xenon/9.2.0/32/libgcc.a(crtresxgpr.o)
 .debug_aranges
                0x0000000000001ac8       0x20 /usr/local/xenon/lib/gcc/xenon/9.2.0/32/libgcc.a(unwind-dw2-fde-dip.o)
 .debug_aranges
                0x0000000000001ae8       0x20 /usr/local/xenon/xenon/lib/32/libc.a(lib_a-assert.o)
 .debug_aranges
                0x0000000000001b08       0x18 /usr/local/xenon/xenon/lib/32/libc.a(lib_a-ctype_.o)
 .debug_aranges
                0x0000000000001b20       0x20 /usr/local/xenon/xenon/lib/32/libc.a(lib_a-errno.o)
 .debug_aranges
                0x0000000000001b40       0x20 /usr/local/xenon/xenon/lib/32/libc.a(lib_a-exit.o)
 .debug_aranges
                0x0000000000001b60       0x20 /usr/local/xenon/xenon/lib/32/libc.a(lib_a-fclose.o)
 .debug_aranges
                0x0000000000001b80       0x20 /usr/local/xenon/xenon/lib/32/libc.a(lib_a-fflush.o)
 .debug_aranges
                0x0000000000001ba0       0x20 /usr/local/xenon/xenon/lib/32/libc.a(lib_a-findfp.o)
 .debug_aranges
                0x0000000000001bc0       0x20 /usr/local/xenon/xenon/lib/32/libc.a(lib_a-fiprintf.o)
 .debug_aranges
                0x0000000000001be0       0x20 /usr/local/xenon/xenon/lib/32/libc.a(lib_a-fopen.o)
 .debug_aranges
                0x0000000000001c00       0x20 /usr/local/xenon/xenon/lib/32/libc.a(lib_a-fread.o)
 .debug_aranges
                0x0000000000001c20       0x20 /usr/local/xenon/xenon/lib/32/libc.a(lib_a-freer.o)
 .debug_aranges
                0x0000000000001c40       0x20 /usr/local/xenon/xenon/lib/32/libc.a(lib_a-fseek.o)
 .debug_aranges
                0x0000000000001c60       0x20 /usr/local/xenon/xenon/lib/32/libc.a(lib_a-fseeko.o)
 .debug_aranges
                0x0000000000001c80       0x20 /usr/local/xenon/xenon/lib/32/libc.a(lib_a-fstatr.o)
 .debug_aranges
                0x0000000000001ca0       0x20 /usr/local/xenon/xenon/lib/32/libc.a(lib_a-ftell.o)
 .debug_aranges
                0x0000000000001cc0       0x20 /usr/local/xenon/xenon/lib/32/libc.a(lib_a-ftello.o)
 .debug_aranges
                0x0000000000001ce0       0x20 /usr/local/xenon/xenon/lib/32/libc.a(lib_a-fwalk.o)
 .debug_aranges
                0x0000000000001d00       0x20 /usr/local/xenon/xenon/lib/32/libc.a(lib_a-fwrite.o)
 .debug_aranges
                0x0000000000001d20       0x18 /usr/local/xenon/xenon/lib/32/libc.a(lib_a-impure.o)
 .debug_aranges
                0x0000000000001d38       0x20 /usr/local/xenon/xenon/lib/32/libc.a(lib_a-lcltime_r.o)
 .debug_aranges
                0x0000000000001d58       0x20 /usr/local/xenon/xenon/lib/32/libc.a(lib_a-locale.o)
 .debug_aranges
                0x0000000000001d78       0x20 /usr/local/xenon/xenon/lib/32/libc.a(lib_a-makebuf.o)
 .debug_aranges
                0x0000000000001d98       0x20 /usr/local/xenon/xenon/lib/32/libc.a(lib_a-malign.o)
 .debug_aranges
                0x0000000000001db8       0x20 /usr/local/xenon/xenon/lib/32/libc.a(lib_a-malignr.o)
 .debug_aranges
                0x0000000000001dd8       0x20 /usr/local/xenon/xenon/lib/32/libc.a(lib_a-malloc.o)
 .debug_aranges
                0x0000000000001df8       0x20 /usr/local/xenon/xenon/lib/32/libc.a(lib_a-mallocr.o)
 .debug_aranges
                0x0000000000001e18       0x20 /usr/local/xenon/xenon/lib/32/libc.a(lib_a-mbrtowc.o)
 .debug_aranges
                0x0000000000001e38       0x20 /usr/local/xenon/xenon/lib/32/libc.a(lib_a-mbsrtowcs.o)
 .debug_aranges
                0x0000000000001e58       0x20 /usr/local/xenon/xenon/lib/32/libc.a(lib_a-mbtowc_r.o)
 .debug_aranges
                0x0000000000001e78       0x20 /usr/local/xenon/xenon/lib/32/libc.a(lib_a-memcmp.o)
 .debug_aranges
                0x0000000000001e98       0x20 /usr/local/xenon/xenon/lib/32/libc.a(lib_a-memcpy.o)
 .debug_aranges
                0x0000000000001eb8       0x20 /usr/local/xenon/xenon/lib/32/libc.a(lib_a-memmove.o)
 .debug_aranges
                0x0000000000001ed8       0x20 /usr/local/xenon/xenon/lib/32/libc.a(lib_a-memset.o)
 .debug_aranges
                0x0000000000001ef8       0x20 /usr/local/xenon/xenon/lib/32/libc.a(lib_a-mktime.o)
 .debug_aranges
                0x0000000000001f18       0x18 /usr/local/xenon/xenon/lib/32/libc.a(lib_a-month_lengths.o)
 .debug_aranges
                0x0000000000001f30       0x20 /usr/local/xenon/xenon/lib/32/libc.a(lib_a-openr.o)
 .debug_aranges
                0x0000000000001f50       0x20 /usr/local/xenon/xenon/lib/32/libc.a(lib_a-printf.o)
 .debug_aranges
                0x0000000000001f70       0x20 /usr/local/xenon/xenon/lib/32/libc.a(lib_a-putchar.o)
 .debug_aranges
                0x0000000000001f90       0x20 /usr/local/xenon/xenon/lib/32/libc.a(lib_a-puts.o)
 .debug_aranges
                0x0000000000001fb0       0x20 /usr/local/xenon/xenon/lib/32/libc.a(lib_a-reent.o)
 .debug_aranges
                0x0000000000001fd0       0x20 /usr/local/xenon/xenon/lib/32/libc.a(lib_a-refill.o)
 .debug_aranges
                0x0000000000001ff0       0x20 /usr/local/xenon/xenon/lib/32/libc.a(lib_a-sbrkr.o)
 .debug_aranges
                0x0000000000002010       0x20 /usr/local/xenon/xenon/lib/32/libc.a(lib_a-snprintf.o)
 .debug_aranges
                0x0000000000002030       0x20 /usr/local/xenon/xenon/lib/32/libc.a(lib_a-sprintf.o)
 .debug_aranges
                0x0000000000002050       0x20 /usr/local/xenon/xenon/lib/32/libc.a(lib_a-stdio.o)
 .debug_aranges
                0x0000000000002070       0x20 /usr/local/xenon/xenon/lib/32/libc.a(lib_a-stpcpy.o)
 .debug_aranges
                0x0000000000002090       0x20 /usr/local/xenon/xenon/lib/32/libc.a(lib_a-strcat.o)
 .debug_aranges
                0x00000000000020b0       0x20 /usr/local/xenon/xenon/lib/32/libc.a(lib_a-strchr.o)
 .debug_aranges
                0x00000000000020d0       0x20 /usr/local/xenon/xenon/lib/32/libc.a(lib_a-strcmp.o)
 .debug_aranges
                0x00000000000020f0       0x20 /usr/local/xenon/xenon/lib/32/libc.a(lib_a-strcpy.o)
 .debug_aranges
                0x0000000000002110       0x20 /usr/local/xenon/xenon/lib/32/libc.a(lib_a-strlen.o)
 .debug_aranges
                0x0000000000002130       0x20 /usr/local/xenon/xenon/lib/32/libc.a(lib_a-strncasecmp.o)
 .debug_aranges
                0x0000000000002150       0x20 /usr/local/xenon/xenon/lib/32/libc.a(lib_a-strncmp.o)
 .debug_aranges
                0x0000000000002170       0x20 /usr/local/xenon/xenon/lib/32/libc.a(lib_a-strncpy.o)
 .debug_aranges
                0x0000000000002190       0x20 /usr/local/xenon/xenon/lib/32/libc.a(lib_a-strnlen.o)
 .debug_aranges
                0x00000000000021b0       0x20 /usr/local/xenon/xenon/lib/32/libc.a(lib_a-strpbrk.o)
 .debug_aranges
                0x00000000000021d0       0x20 /usr/local/xenon/xenon/lib/32/libc.a(lib_a-strrchr.o)
 .debug_aranges
                0x00000000000021f0       0x20 /usr/local/xenon/xenon/lib/32/libc.a(lib_a-svfprintf.o)
 .debug_aranges
                0x0000000000002210       0x20 /usr/local/xenon/xenon/lib/32/libc.a(lib_a-time.o)
 .debug_aranges
                0x0000000000002230       0x20 /usr/local/xenon/xenon/lib/32/libc.a(lib_a-towlower.o)
 .debug_aranges
                0x0000000000002250       0x20 /usr/local/xenon/xenon/lib/32/libc.a(lib_a-towupper.o)
 .debug_aranges
                0x0000000000002270       0x20 /usr/local/xenon/xenon/lib/32/libc.a(lib_a-tzcalc_limits.o)
 .debug_aranges
                0x0000000000002290       0x20 /usr/local/xenon/xenon/lib/32/libc.a(lib_a-tzlock.o)
 .debug_aranges
                0x00000000000022b0       0x20 /usr/local/xenon/xenon/lib/32/libc.a(lib_a-tzset.o)
 .debug_aranges
                0x00000000000022d0       0x20 /usr/local/xenon/xenon/lib/32/libc.a(lib_a-tzset_r.o)
 .debug_aranges
                0x00000000000022f0       0x18 /usr/local/xenon/xenon/lib/32/libc.a(lib_a-tzvars.o)
 .debug_aranges
                0x0000000000002308       0x20 /usr/local/xenon/xenon/lib/32/libc.a(lib_a-vfiprintf.o)
 .debug_aranges
                0x0000000000002328       0x20 /usr/local/xenon/xenon/lib/32/libc.a(lib_a-vfprintf.o)
 .debug_aranges
                0x0000000000002348       0x20 /usr/local/xenon/xenon/lib/32/libc.a(lib_a-vsprintf.o)
 .debug_aranges
                0x0000000000002368       0x20 /usr/local/xenon/xenon/lib/32/libc.a(lib_a-wcrtomb.o)
 .debug_aranges
                0x0000000000002388       0x20 /usr/local/xenon/xenon/lib/32/libc.a(lib_a-wctob.o)
 .debug_aranges
                0x00000000000023a8       0x20 /usr/local/xenon/xenon/lib/32/libc.a(lib_a-wctomb_r.o)
 .debug_aranges
                0x00000000000023c8       0x20 /usr/local/xenon/xenon/lib/32/libc.a(lib_a-writer.o)
 .debug_aranges
                0x00000000000023e8       0x20 /usr/local/xenon/xenon/lib/32/libc.a(lib_a-wsetup.o)
 .debug_aranges
                0x0000000000002408       0x20 /usr/local/xenon/xenon/lib/32/libc.a(lib_a-__call_atexit.o)
 .debug_aranges
                0x0000000000002428       0x20 /usr/local/xenon/xenon/lib/32/libc.a(lib_a-closer.o)
 .debug_aranges
                0x0000000000002448       0x20 /usr/local/xenon/xenon/lib/32/libc.a(lib_a-div.o)
 .debug_aranges
                0x0000000000002468       0x20 /usr/local/xenon/xenon/lib/32/libc.a(lib_a-dtoa.o)
 .debug_aranges
                0x0000000000002488       0x20 /usr/local/xenon/xenon/lib/32/libc.a(lib_a-flags.o)
 .debug_aranges
                0x00000000000024a8       0x20 /usr/local/xenon/xenon/lib/32/libc.a(lib_a-fputwc.o)
 .debug_aranges
                0x00000000000024c8       0x20 /usr/local/xenon/xenon/lib/32/libc.a(lib_a-fvwrite.o)
 .debug_aranges
                0x00000000000024e8       0x20 /usr/local/xenon/xenon/lib/32/libc.a(lib_a-getenv_r.o)
 .debug_aranges
                0x0000000000002508       0x20 /usr/local/xenon/xenon/lib/32/libc.a(lib_a-gettimeofdayr.o)
 .debug_aranges
                0x0000000000002528       0x20 /usr/local/xenon/xenon/lib/32/libc.a(lib_a-gettzinfo.o)
 .debug_aranges
                0x0000000000002548       0x20 /usr/local/xenon/xenon/lib/32/libc.a(lib_a-gmtime_r.o)
 .debug_aranges
                0x0000000000002568       0x20 /usr/local/xenon/xenon/lib/32/libc.a(lib_a-isattyr.o)
 .debug_aranges
                0x0000000000002588       0x20 /usr/local/xenon/xenon/lib/32/libc.a(lib_a-localeconv.o)
 .debug_aranges
                0x00000000000025a8       0x20 /usr/local/xenon/xenon/lib/32/libc.a(lib_a-lseekr.o)
 .debug_aranges
                0x00000000000025c8       0x20 /usr/local/xenon/xenon/lib/32/libc.a(lib_a-mbsnrtowcs.o)
 .debug_aranges
                0x00000000000025e8       0x20 /usr/local/xenon/xenon/lib/32/libc.a(lib_a-memchr.o)
 .debug_aranges
                0x0000000000002608       0x20 /usr/local/xenon/xenon/lib/32/libc.a(lib_a-mprec.o)
 .debug_aranges
                0x0000000000002628       0x20 /usr/local/xenon/xenon/lib/32/libc.a(lib_a-putc.o)
 .debug_aranges
                0x0000000000002648       0x20 /usr/local/xenon/xenon/lib/32/libc.a(lib_a-readr.o)
 .debug_aranges
                0x0000000000002668       0x20 /usr/local/xenon/xenon/lib/32/libc.a(lib_a-reallocr.o)
 .debug_aranges
                0x0000000000002688       0x20 /usr/local/xenon/xenon/lib/32/libc.a(lib_a-siscanf.o)
 .debug_aranges
                0x00000000000026a8       0x20 /usr/local/xenon/xenon/lib/32/libc.a(lib_a-strtoul.o)
 .debug_aranges
                0x00000000000026c8       0x20 /usr/local/xenon/xenon/lib/32/libc.a(lib_a-svfiprintf.o)
 .debug_aranges
                0x00000000000026e8       0x20 /usr/local/xenon/xenon/lib/32/libc.a(lib_a-svfiscanf.o)
 .debug_aranges
                0x0000000000002708       0x20 /usr/local/xenon/xenon/lib/32/libc.a(lib_a-ungetc.o)
 .debug_aranges
                0x0000000000002728       0x20 /usr/local/xenon/xenon/lib/32/libc.a(lib_a-wbuf.o)
 .debug_aranges
                0x0000000000002748       0x20 /usr/local/xenon/xenon/lib/32/libc.a(lib_a-callocr.o)
 .debug_aranges
                0x0000000000002768       0x18 /usr/local/xenon/xenon/lib/32/libc.a(lib_a-environ.o)
 .debug_aranges
                0x0000000000002780       0x20 /usr/local/xenon/xenon/lib/32/libc.a(lib_a-envlock.o)
 .debug_aranges
                0x00000000000027a0       0x20 /usr/local/xenon/xenon/lib/32/libc.a(lib_a-iswspace.o)
 .debug_aranges
                0x00000000000027c0       0x20 /usr/local/xenon/xenon/lib/32/libc.a(lib_a-iswspace_l.o)
 .debug_aranges
                0x00000000000027e0       0x20 /usr/local/xenon/xenon/lib/32/libc.a(lib_a-sccl.o)
 .debug_aranges
                0x0000000000002800       0x20 /usr/local/xenon/xenon/lib/32/libc.a(lib_a-strtol.o)
 .debug_aranges
                0x0000000000002820       0x20 /usr/local/xenon/xenon/lib/32/libc.a(lib_a-strtoll.o)
 .debug_aranges
                0x0000000000002840       0x20 /usr/local/xenon/xenon/lib/32/libc.a(lib_a-strtoull.o)
 .debug_aranges
                0x0000000000002860       0x20 /usr/local/xenon/lib/gcc/xenon/9.2.0/32/libgcc.a(_divdi3.o)
 .debug_aranges
                0x0000000000002880       0x20 /usr/local/xenon/lib/gcc/xenon/9.2.0/32/libgcc.a(_moddi3.o)
 .debug_aranges
                0x00000000000028a0       0x20 /usr/local/xenon/lib/gcc/xenon/9.2.0/32/libgcc.a(_udivdi3.o)
 .debug_aranges
                0x00000000000028c0       0x20 /usr/local/xenon/lib/gcc/xenon/9.2.0/32/libgcc.a(_umoddi3.o)

.debug_ranges   0x0000000000000000     0x59f8
 .debug_ranges  0x0000000000000000       0x20 /usr/local/xenon/lib/gcc/xenon/9.2.0/../../../../xenon/lib/../lib/crt1.o
 .debug_ranges  0x0000000000000020       0x78 main.o
 .debug_ranges  0x0000000000000098       0x10 /usr/local/xenon/usr/lib/libxenon.a(argv.o)
 .debug_ranges  0x00000000000000a8      0x470 /usr/local/xenon/usr/lib/libxenon.a(ata.o)
 .debug_ranges  0x0000000000000518      0x2d8 /usr/local/xenon/usr/lib/libxenon.a(newlib.o)
 .debug_ranges  0x00000000000007f0       0x58 /usr/local/xenon/usr/lib/libxenon.a(xenon_syscalls.o)
 .debug_ranges  0x0000000000000848       0x68 /usr/local/xenon/usr/lib/libxenon.a(c_except.o)
 .debug_ranges  0x00000000000008b0       0x30 /usr/local/xenon/usr/lib/libxenon.a(vm.o)
 .debug_ranges  0x00000000000008e0       0x48 /usr/local/xenon/usr/lib/libxenon.a(time.o)
 .debug_ranges  0x0000000000000928       0x40 /usr/local/xenon/usr/lib/libxenon.a(usbmain.o)
 .debug_ranges  0x0000000000000968      0x760 /usr/local/xenon/usr/lib/libxenon.a(tinyehci.o)
 .debug_ranges  0x00000000000010c8       0x40 /usr/local/xenon/usr/lib/libxenon.a(debug.o)
 .debug_ranges  0x0000000000001108       0xa8 /usr/local/xenon/usr/lib/libxenon.a(xenon_smc.o)
 .debug_ranges  0x00000000000011b0      0x1f8 /usr/local/xenon/usr/lib/libxenon.a(xenon_power.o)
 .debug_ranges  0x00000000000013a8       0x10 /usr/local/xenon/usr/lib/libxenon.a(xenon_secotp.o)
 .debug_ranges  0x00000000000013b8       0x28 /usr/local/xenon/usr/lib/libxenon.a(xenon_uart.o)
 .debug_ranges  0x00000000000013e0      0x318 /usr/local/xenon/usr/lib/libxenon.a(xenon_sfcx.o)
 .debug_ranges  0x00000000000016f8       0x58 /usr/local/xenon/usr/lib/libxenon.a(xenon_config.o)
 .debug_ranges  0x0000000000001750      0x4a8 /usr/local/xenon/usr/lib/libxenon.a(xenos.o)
 .debug_ranges  0x0000000000001bf8       0xa0 /usr/local/xenon/usr/lib/libxenon.a(xenos_edid.o)
 .debug_ranges  0x0000000000001c98      0x1f8 /usr/local/xenon/usr/lib/libxenon.a(enet.o)
 .debug_ranges  0x0000000000001e90       0xe0 /usr/local/xenon/usr/lib/libxenon.a(xb360.o)
 .debug_ranges  0x0000000000001f70       0xe0 /usr/local/xenon/usr/lib/libxenon.a(console.o)
 .debug_ranges  0x0000000000002050       0x60 /usr/local/xenon/usr/lib/libxenon.a(lib_malloc.o)
 .debug_ranges  0x00000000000020b0       0x28 /usr/local/xenon/usr/lib/libxenon.a(io.o)
 .debug_ranges  0x00000000000020d8      0x1a0 /usr/local/xenon/usr/lib/libxenon.a(ohci.o)
 .debug_ranges  0x0000000000002278      0x130 /usr/local/xenon/usr/lib/libxenon.a(usbd.o)
 .debug_ranges  0x00000000000023a8       0x10 /usr/local/xenon/usr/lib/libxenon.a(usbdevs.o)
 .debug_ranges  0x00000000000023b8       0xa8 /usr/local/xenon/usr/lib/libxenon.a(usbhid.o)
 .debug_ranges  0x0000000000002460      0x120 /usr/local/xenon/usr/lib/libxenon.a(usbhub.o)
 .debug_ranges  0x0000000000002580       0x48 /usr/local/xenon/usr/lib/libxenon.a(usb_os.o)
 .debug_ranges  0x00000000000025c8       0x20 /usr/local/xenon/usr/lib/libxenon.a(xenon_gpio.o)
 .debug_ranges  0x00000000000025e8       0x48 /usr/local/xenon/usr/lib/libxenon.a(mem.o)
 .debug_ranges  0x0000000000002630       0xf0 /usr/local/xenon/usr/lib/libxenon.a(pbuf.o)
 .debug_ranges  0x0000000000002720       0x10 /usr/local/xenon/usr/lib/libxenon.a(stats.o)
 .debug_ranges  0x0000000000002730      0x138 /usr/local/xenon/usr/lib/libxenon.a(etharp.o)
 .debug_ranges  0x0000000000002868      0x280 /usr/local/xenon/usr/lib/libxenon.a(dhcp.o)
 .debug_ranges  0x0000000000002ae8       0x50 /usr/local/xenon/usr/lib/libxenon.a(hmac_sha1.o)
 .debug_ranges  0x0000000000002b38       0x18 /usr/local/xenon/usr/lib/libxenon.a(rc4.o)
 .debug_ranges  0x0000000000002b50       0x28 /usr/local/xenon/usr/lib/libxenon.a(sha1.o)
 .debug_ranges  0x0000000000002b78       0x38 /usr/local/xenon/usr/lib/libxenon.a(lib_queue.o)
 .debug_ranges  0x0000000000002bb0       0x18 /usr/local/xenon/usr/lib/libxenon.a(dummy.o)
 .debug_ranges  0x0000000000002bc8      0x1b0 /usr/local/xenon/usr/lib/libxenon.a(usbctrl.o)
 .debug_ranges  0x0000000000002d78       0x38 /usr/local/xenon/usr/lib/libxenon.a(usbdebug.o)
 .debug_ranges  0x0000000000002db0      0x108 /usr/local/xenon/usr/lib/libxenon.a(dns.o)
 .debug_ranges  0x0000000000002eb8       0x20 /usr/local/xenon/usr/lib/libxenon.a(memp.o)
 .debug_ranges  0x0000000000002ed8       0xc8 /usr/local/xenon/usr/lib/libxenon.a(netif.o)
 .debug_ranges  0x0000000000002fa0      0x258 /usr/local/xenon/usr/lib/libxenon.a(tcp.o)
 .debug_ranges  0x00000000000031f8       0x38 /usr/local/xenon/usr/lib/libxenon.a(ip_addr.o)
 .debug_ranges  0x0000000000003230       0x98 /usr/local/xenon/usr/lib/libxenon.a(ip.o)
 .debug_ranges  0x00000000000032c8      0x110 /usr/local/xenon/usr/lib/libxenon.a(ip_frag.o)
 .debug_ranges  0x00000000000033d8      0x1b8 /usr/local/xenon/usr/lib/libxenon.a(tcp_out.o)
 .debug_ranges  0x0000000000003590       0x70 /usr/local/xenon/usr/lib/libxenon.a(udp.o)
 .debug_ranges  0x0000000000003600       0x48 /usr/local/xenon/usr/lib/libxenon.a(raw.o)
 .debug_ranges  0x0000000000003648       0x10 /usr/local/xenon/usr/lib/libxenon.a(timers.o)
 .debug_ranges  0x0000000000003658       0x20 /usr/local/xenon/usr/lib/libxenon.a(input.o)
 .debug_ranges  0x0000000000003678       0xf0 /usr/local/xenon/usr/lib/libxenon.a(tcp_in.o)
 .debug_ranges  0x0000000000003768       0x30 /usr/local/xenon/usr/lib/libxenon.a(inet_chksum.o)
 .debug_ranges  0x0000000000003798       0x40 /usr/local/xenon/usr/lib/libxenon.a(icmp.o)
 .debug_ranges  0x00000000000037d8       0xa0 /usr/local/xenon/usr/lib/libfat.a(libfat.o)
 .debug_ranges  0x0000000000003878      0x2e0 /usr/local/xenon/usr/lib/libfat.a(partition.o)
 .debug_ranges  0x0000000000003b58       0xd0 /usr/local/xenon/usr/lib/libfat.a(cache.o)
 .debug_ranges  0x0000000000003c28      0x158 /usr/local/xenon/usr/lib/libfat.a(directory.o)
 .debug_ranges  0x0000000000003d80      0x1d0 /usr/local/xenon/usr/lib/libfat.a(fatdir.o)
 .debug_ranges  0x0000000000003f50      0x120 /usr/local/xenon/usr/lib/libfat.a(fatfile.o)
 .debug_ranges  0x0000000000004070       0x78 /usr/local/xenon/usr/lib/libfat.a(file_allocation_table.o)
 .debug_ranges  0x00000000000040e8      0x440 /usr/local/xenon/lib/gcc/xenon/9.2.0/32/libgcc.a(unwind-dw2-fde-dip.o)
 .debug_ranges  0x0000000000004528       0x88 /usr/local/xenon/xenon/lib/32/libc.a(lib_a-fclose.o)
 .debug_ranges  0x00000000000045b0       0x60 /usr/local/xenon/xenon/lib/32/libc.a(lib_a-fflush.o)
 .debug_ranges  0x0000000000004610      0x258 /usr/local/xenon/xenon/lib/32/libc.a(lib_a-findfp.o)
 .debug_ranges  0x0000000000004868       0x58 /usr/local/xenon/xenon/lib/32/libc.a(lib_a-fread.o)
 .debug_ranges  0x00000000000048c0       0x28 /usr/local/xenon/xenon/lib/32/libc.a(lib_a-fseeko.o)
 .debug_ranges  0x00000000000048e8       0x28 /usr/local/xenon/xenon/lib/32/libc.a(lib_a-ftello.o)
 .debug_ranges  0x0000000000004910       0x20 /usr/local/xenon/xenon/lib/32/libc.a(lib_a-fwrite.o)
 .debug_ranges  0x0000000000004930       0x38 /usr/local/xenon/xenon/lib/32/libc.a(lib_a-makebuf.o)
 .debug_ranges  0x0000000000004968       0x38 /usr/local/xenon/xenon/lib/32/libc.a(lib_a-mallocr.o)
 .debug_ranges  0x00000000000049a0       0x10 /usr/local/xenon/xenon/lib/32/libc.a(lib_a-mbrtowc.o)
 .debug_ranges  0x00000000000049b0       0x80 /usr/local/xenon/xenon/lib/32/libc.a(lib_a-mktime.o)
 .debug_ranges  0x0000000000004a30       0x28 /usr/local/xenon/xenon/lib/32/libc.a(lib_a-puts.o)
 .debug_ranges  0x0000000000004a58       0x28 /usr/local/xenon/xenon/lib/32/libc.a(lib_a-refill.o)
 .debug_ranges  0x0000000000004a80       0x80 /usr/local/xenon/xenon/lib/32/libc.a(lib_a-strncasecmp.o)
 .debug_ranges  0x0000000000004b00       0x10 /usr/local/xenon/xenon/lib/32/libc.a(lib_a-strnlen.o)
 .debug_ranges  0x0000000000004b10      0x158 /usr/local/xenon/xenon/lib/32/libc.a(lib_a-svfprintf.o)
 .debug_ranges  0x0000000000004c68       0x48 /usr/local/xenon/xenon/lib/32/libc.a(lib_a-tzcalc_limits.o)
 .debug_ranges  0x0000000000004cb0       0x28 /usr/local/xenon/xenon/lib/32/libc.a(lib_a-tzset_r.o)
 .debug_ranges  0x0000000000004cd8      0x178 /usr/local/xenon/xenon/lib/32/libc.a(lib_a-vfiprintf.o)
 .debug_ranges  0x0000000000004e50      0x178 /usr/local/xenon/xenon/lib/32/libc.a(lib_a-vfprintf.o)
 .debug_ranges  0x0000000000004fc8       0x10 /usr/local/xenon/xenon/lib/32/libc.a(lib_a-wcrtomb.o)
 .debug_ranges  0x0000000000004fd8       0x20 /usr/local/xenon/xenon/lib/32/libc.a(lib_a-wsetup.o)
 .debug_ranges  0x0000000000004ff8       0x20 /usr/local/xenon/xenon/lib/32/libc.a(lib_a-__call_atexit.o)
 .debug_ranges  0x0000000000005018       0x60 /usr/local/xenon/xenon/lib/32/libc.a(lib_a-fputwc.o)
 .debug_ranges  0x0000000000005078       0x28 /usr/local/xenon/xenon/lib/32/libc.a(lib_a-fvwrite.o)
 .debug_ranges  0x00000000000050a0       0xa0 /usr/local/xenon/xenon/lib/32/libc.a(lib_a-mprec.o)
 .debug_ranges  0x0000000000005140       0x80 /usr/local/xenon/xenon/lib/32/libc.a(lib_a-putc.o)
 .debug_ranges  0x00000000000051c0      0x198 /usr/local/xenon/xenon/lib/32/libc.a(lib_a-reallocr.o)
 .debug_ranges  0x0000000000005358       0x48 /usr/local/xenon/xenon/lib/32/libc.a(lib_a-svfiprintf.o)
 .debug_ranges  0x00000000000053a0      0x210 /usr/local/xenon/xenon/lib/32/libc.a(lib_a-svfiscanf.o)
 .debug_ranges  0x00000000000055b0       0x50 /usr/local/xenon/xenon/lib/32/libc.a(lib_a-ungetc.o)
 .debug_ranges  0x0000000000005600       0x28 /usr/local/xenon/xenon/lib/32/libc.a(lib_a-wbuf.o)
 .debug_ranges  0x0000000000005628       0x48 /usr/local/xenon/xenon/lib/32/libc.a(lib_a-callocr.o)
 .debug_ranges  0x0000000000005670       0x10 /usr/local/xenon/xenon/lib/32/libc.a(lib_a-sccl.o)
 .debug_ranges  0x0000000000005680       0xc8 /usr/local/xenon/lib/gcc/xenon/9.2.0/32/libgcc.a(_divdi3.o)
 .debug_ranges  0x0000000000005748       0xd0 /usr/local/xenon/lib/gcc/xenon/9.2.0/32/libgcc.a(_moddi3.o)
 .debug_ranges  0x0000000000005818       0xe0 /usr/local/xenon/lib/gcc/xenon/9.2.0/32/libgcc.a(_udivdi3.o)
 .debug_ranges  0x00000000000058f8      0x100 /usr/local/xenon/lib/gcc/xenon/9.2.0/32/libgcc.a(_umoddi3.o)

.debug_line     0x0000000000000000    0x46fd1
 .debug_line    0x0000000000000000       0xf4 /usr/local/xenon/lib/gcc/xenon/9.2.0/../../../../xenon/lib/../lib/crt1.o
 .debug_line    0x00000000000000f4      0x625 main.o
 .debug_line    0x0000000000000719       0x80 /usr/local/xenon/usr/lib/libxenon.a(argv.o)
 .debug_line    0x0000000000000799     0x1284 /usr/local/xenon/usr/lib/libxenon.a(ata.o)
 .debug_line    0x0000000000001a1d     0x1b27 /usr/local/xenon/usr/lib/libxenon.a(newlib.o)
 .debug_line    0x0000000000003544      0x558 /usr/local/xenon/usr/lib/libxenon.a(xenon_syscalls.o)
 .debug_line    0x0000000000003a9c      0x3d2 /usr/local/xenon/usr/lib/libxenon.a(c_except.o)
 .debug_line    0x0000000000003e6e      0x303 /usr/local/xenon/usr/lib/libxenon.a(vm.o)
 .debug_line    0x0000000000004171      0x1b1 /usr/local/xenon/usr/lib/libxenon.a(time.o)
 .debug_line    0x0000000000004322      0x3b2 /usr/local/xenon/usr/lib/libxenon.a(usbmain.o)
 .debug_line    0x00000000000046d4     0x34f6 /usr/local/xenon/usr/lib/libxenon.a(tinyehci.o)
 .debug_line    0x0000000000007bca      0x42c /usr/local/xenon/usr/lib/libxenon.a(debug.o)
 .debug_line    0x0000000000007ff6      0x8d9 /usr/local/xenon/usr/lib/libxenon.a(xenon_smc.o)
 .debug_line    0x00000000000088cf      0xa49 /usr/local/xenon/usr/lib/libxenon.a(xenon_power.o)
 .debug_line    0x0000000000009318       0xf7 /usr/local/xenon/usr/lib/libxenon.a(xenon_secotp.o)
 .debug_line    0x000000000000940f      0x1de /usr/local/xenon/usr/lib/libxenon.a(xenon_uart.o)
 .debug_line    0x00000000000095ed     0x15b4 /usr/local/xenon/usr/lib/libxenon.a(xenon_sfcx.o)
 .debug_line    0x000000000000aba1      0x338 /usr/local/xenon/usr/lib/libxenon.a(xenon_config.o)
 .debug_line    0x000000000000aed9     0x1d8a /usr/local/xenon/usr/lib/libxenon.a(xenos.o)
 .debug_line    0x000000000000cc63      0x5bd /usr/local/xenon/usr/lib/libxenon.a(xenos_edid.o)
 .debug_line    0x000000000000d220      0x9c1 /usr/local/xenon/usr/lib/libxenon.a(enet.o)
 .debug_line    0x000000000000dbe1      0xdbf /usr/local/xenon/usr/lib/libxenon.a(xb360.o)
 .debug_line    0x000000000000e9a0      0x61c /usr/local/xenon/usr/lib/libxenon.a(console.o)
 .debug_line    0x000000000000efbc      0x60a /usr/local/xenon/usr/lib/libxenon.a(lib_malloc.o)
 .debug_line    0x000000000000f5c6      0x108 /usr/local/xenon/usr/lib/libxenon.a(io.o)
 .debug_line    0x000000000000f6ce     0x13b3 /usr/local/xenon/usr/lib/libxenon.a(ohci.o)
 .debug_line    0x0000000000010a81      0xd8d /usr/local/xenon/usr/lib/libxenon.a(usbd.o)
 .debug_line    0x000000000001180e      0x2d0 /usr/local/xenon/usr/lib/libxenon.a(usbdevs.o)
 .debug_line    0x0000000000011ade      0x462 /usr/local/xenon/usr/lib/libxenon.a(usbhid.o)
 .debug_line    0x0000000000011f40      0x8f9 /usr/local/xenon/usr/lib/libxenon.a(usbhub.o)
 .debug_line    0x0000000000012839      0x2e9 /usr/local/xenon/usr/lib/libxenon.a(usb_os.o)
 .debug_line    0x0000000000012b22      0x1a2 /usr/local/xenon/usr/lib/libxenon.a(xenon_gpio.o)
 .debug_line    0x0000000000012cc4      0x739 /usr/local/xenon/usr/lib/libxenon.a(mem.o)
 .debug_line    0x00000000000133fd     0x1336 /usr/local/xenon/usr/lib/libxenon.a(pbuf.o)
 .debug_line    0x0000000000014733      0x13d /usr/local/xenon/usr/lib/libxenon.a(stats.o)
 .debug_line    0x0000000000014870      0xf15 /usr/local/xenon/usr/lib/libxenon.a(etharp.o)
 .debug_line    0x0000000000015785     0x1e07 /usr/local/xenon/usr/lib/libxenon.a(dhcp.o)
 .debug_line    0x000000000001758c      0x389 /usr/local/xenon/usr/lib/libxenon.a(hmac_sha1.o)
 .debug_line    0x0000000000017915      0x1d2 /usr/local/xenon/usr/lib/libxenon.a(rc4.o)
 .debug_line    0x0000000000017ae7      0xc1a /usr/local/xenon/usr/lib/libxenon.a(sha1.o)
 .debug_line    0x0000000000018701      0x266 /usr/local/xenon/usr/lib/libxenon.a(lib_queue.o)
 .debug_line    0x0000000000018967      0x1a1 /usr/local/xenon/usr/lib/libxenon.a(dummy.o)
 .debug_line    0x0000000000018b08      0xa12 /usr/local/xenon/usr/lib/libxenon.a(usbctrl.o)
 .debug_line    0x000000000001951a      0x640 /usr/local/xenon/usr/lib/libxenon.a(usbdebug.o)
 .debug_line    0x0000000000019b5a      0x954 /usr/local/xenon/usr/lib/libxenon.a(dns.o)
 .debug_line    0x000000000001a4ae      0x4ad /usr/local/xenon/usr/lib/libxenon.a(memp.o)
 .debug_line    0x000000000001a95b      0x7e8 /usr/local/xenon/usr/lib/libxenon.a(netif.o)
 .debug_line    0x000000000001b143     0x176c /usr/local/xenon/usr/lib/libxenon.a(tcp.o)
 .debug_line    0x000000000001c8af      0x5f1 /usr/local/xenon/usr/lib/libxenon.a(ip_addr.o)
 .debug_line    0x000000000001cea0      0x78e /usr/local/xenon/usr/lib/libxenon.a(ip.o)
 .debug_line    0x000000000001d62e      0xbda /usr/local/xenon/usr/lib/libxenon.a(ip_frag.o)
 .debug_line    0x000000000001e208     0x1469 /usr/local/xenon/usr/lib/libxenon.a(tcp_out.o)
 .debug_line    0x000000000001f671      0xa52 /usr/local/xenon/usr/lib/libxenon.a(udp.o)
 .debug_line    0x00000000000200c3      0x4f1 /usr/local/xenon/usr/lib/libxenon.a(raw.o)
 .debug_line    0x00000000000205b4      0x18e /usr/local/xenon/usr/lib/libxenon.a(timers.o)
 .debug_line    0x0000000000020742      0x171 /usr/local/xenon/usr/lib/libxenon.a(input.o)
 .debug_line    0x00000000000208b3     0x1888 /usr/local/xenon/usr/lib/libxenon.a(tcp_in.o)
 .debug_line    0x000000000002213b      0x568 /usr/local/xenon/usr/lib/libxenon.a(inet_chksum.o)
 .debug_line    0x00000000000226a3      0x56a /usr/local/xenon/usr/lib/libxenon.a(icmp.o)
 .debug_line    0x0000000000022c0d      0x6f1 /usr/local/xenon/usr/lib/libfat.a(libfat.o)
 .debug_line    0x00000000000232fe      0xbd3 /usr/local/xenon/usr/lib/libfat.a(partition.o)
 .debug_line    0x0000000000023ed1      0x9e0 /usr/local/xenon/usr/lib/libfat.a(cache.o)
 .debug_line    0x00000000000248b1     0x186a /usr/local/xenon/usr/lib/libfat.a(directory.o)
 .debug_line    0x000000000002611b      0x18c /usr/local/xenon/usr/lib/libfat.a(disc.o)
 .debug_line    0x00000000000262a7      0xd6f /usr/local/xenon/usr/lib/libfat.a(fatdir.o)
 .debug_line    0x0000000000027016     0x17cc /usr/local/xenon/usr/lib/libfat.a(fatfile.o)
 .debug_line    0x00000000000287e2      0x7e9 /usr/local/xenon/usr/lib/libfat.a(file_allocation_table.o)
 .debug_line    0x0000000000028fcb      0x2c4 /usr/local/xenon/usr/lib/libfat.a(filetime.o)
 .debug_line    0x000000000002928f       0xb0 /usr/local/xenon/usr/lib/libfat.a(lock.o)
 .debug_line    0x000000000002933f       0x78 /usr/local/xenon/lib/gcc/xenon/9.2.0/32/libgcc.a(crtsavgpr.o)
 .debug_line    0x00000000000293b7       0x7c /usr/local/xenon/lib/gcc/xenon/9.2.0/32/libgcc.a(crtresxgpr.o)
 .debug_line    0x0000000000029433     0x17b3 /usr/local/xenon/lib/gcc/xenon/9.2.0/32/libgcc.a(unwind-dw2-fde-dip.o)
 .debug_line    0x000000000002abe6      0x1c8 /usr/local/xenon/xenon/lib/32/libc.a(lib_a-assert.o)
 .debug_line    0x000000000002adae      0x189 /usr/local/xenon/xenon/lib/32/libc.a(lib_a-ctype_.o)
 .debug_line    0x000000000002af37      0x128 /usr/local/xenon/xenon/lib/32/libc.a(lib_a-errno.o)
 .debug_line    0x000000000002b05f      0x1ae /usr/local/xenon/xenon/lib/32/libc.a(lib_a-exit.o)
 .debug_line    0x000000000002b20d      0x2e2 /usr/local/xenon/xenon/lib/32/libc.a(lib_a-fclose.o)
 .debug_line    0x000000000002b4ef      0x4fa /usr/local/xenon/xenon/lib/32/libc.a(lib_a-fflush.o)
 .debug_line    0x000000000002b9e9      0x655 /usr/local/xenon/xenon/lib/32/libc.a(lib_a-findfp.o)
 .debug_line    0x000000000002c03e      0x1d3 /usr/local/xenon/xenon/lib/32/libc.a(lib_a-fiprintf.o)
 .debug_line    0x000000000002c211      0x28d /usr/local/xenon/xenon/lib/32/libc.a(lib_a-fopen.o)
 .debug_line    0x000000000002c49e      0x445 /usr/local/xenon/xenon/lib/32/libc.a(lib_a-fread.o)
 .debug_line    0x000000000002c8e3      0x59f /usr/local/xenon/xenon/lib/32/libc.a(lib_a-freer.o)
 .debug_line    0x000000000002ce82      0x1d1 /usr/local/xenon/xenon/lib/32/libc.a(lib_a-fseek.o)
 .debug_line    0x000000000002d053      0x7a4 /usr/local/xenon/xenon/lib/32/libc.a(lib_a-fseeko.o)
 .debug_line    0x000000000002d7f7      0x250 /usr/local/xenon/xenon/lib/32/libc.a(lib_a-fstatr.o)
 .debug_line    0x000000000002da47      0x1d0 /usr/local/xenon/xenon/lib/32/libc.a(lib_a-ftell.o)
 .debug_line    0x000000000002dc17      0x2f5 /usr/local/xenon/xenon/lib/32/libc.a(lib_a-ftello.o)
 .debug_line    0x000000000002df0c      0x306 /usr/local/xenon/xenon/lib/32/libc.a(lib_a-fwalk.o)
 .debug_line    0x000000000002e212      0x27e /usr/local/xenon/xenon/lib/32/libc.a(lib_a-fwrite.o)
 .debug_line    0x000000000002e490      0x103 /usr/local/xenon/xenon/lib/32/libc.a(lib_a-impure.o)
 .debug_line    0x000000000002e593      0x547 /usr/local/xenon/xenon/lib/32/libc.a(lib_a-lcltime_r.o)
 .debug_line    0x000000000002eada      0x27f /usr/local/xenon/xenon/lib/32/libc.a(lib_a-locale.o)
 .debug_line    0x000000000002ed59      0x40c /usr/local/xenon/xenon/lib/32/libc.a(lib_a-makebuf.o)
 .debug_line    0x000000000002f165      0x188 /usr/local/xenon/xenon/lib/32/libc.a(lib_a-malign.o)
 .debug_line    0x000000000002f2ed      0x282 /usr/local/xenon/xenon/lib/32/libc.a(lib_a-malignr.o)
 .debug_line    0x000000000002f56f      0x19f /usr/local/xenon/xenon/lib/32/libc.a(lib_a-malloc.o)
 .debug_line    0x000000000002f70e      0x937 /usr/local/xenon/xenon/lib/32/libc.a(lib_a-mallocr.o)
 .debug_line    0x0000000000030045      0x2fe /usr/local/xenon/xenon/lib/32/libc.a(lib_a-mbrtowc.o)
 .debug_line    0x0000000000030343      0x1b1 /usr/local/xenon/xenon/lib/32/libc.a(lib_a-mbsrtowcs.o)
 .debug_line    0x00000000000304f4      0x28e /usr/local/xenon/xenon/lib/32/libc.a(lib_a-mbtowc_r.o)
 .debug_line    0x0000000000030782      0x1e5 /usr/local/xenon/xenon/lib/32/libc.a(lib_a-memcmp.o)
 .debug_line    0x0000000000030967      0x286 /usr/local/xenon/xenon/lib/32/libc.a(lib_a-memcpy.o)
 .debug_line    0x0000000000030bed      0x2d2 /usr/local/xenon/xenon/lib/32/libc.a(lib_a-memmove.o)
 .debug_line    0x0000000000030ebf      0x2c0 /usr/local/xenon/xenon/lib/32/libc.a(lib_a-memset.o)
 .debug_line    0x000000000003117f      0x833 /usr/local/xenon/xenon/lib/32/libc.a(lib_a-mktime.o)
 .debug_line    0x00000000000319b2      0x169 /usr/local/xenon/xenon/lib/32/libc.a(lib_a-month_lengths.o)
 .debug_line    0x0000000000031b1b      0x1e3 /usr/local/xenon/xenon/lib/32/libc.a(lib_a-openr.o)
 .debug_line    0x0000000000031cfe      0x203 /usr/local/xenon/xenon/lib/32/libc.a(lib_a-printf.o)
 .debug_line    0x0000000000031f01      0x1be /usr/local/xenon/xenon/lib/32/libc.a(lib_a-putchar.o)
 .debug_line    0x00000000000320bf      0x2ac /usr/local/xenon/xenon/lib/32/libc.a(lib_a-puts.o)
 .debug_line    0x000000000003236b      0x282 /usr/local/xenon/xenon/lib/32/libc.a(lib_a-reent.o)
 .debug_line    0x00000000000325ed      0x408 /usr/local/xenon/xenon/lib/32/libc.a(lib_a-refill.o)
 .debug_line    0x00000000000329f5      0x1c1 /usr/local/xenon/xenon/lib/32/libc.a(lib_a-sbrkr.o)
 .debug_line    0x0000000000032bb6      0x448 /usr/local/xenon/xenon/lib/32/libc.a(lib_a-snprintf.o)
 .debug_line    0x0000000000032ffe      0x270 /usr/local/xenon/xenon/lib/32/libc.a(lib_a-sprintf.o)
 .debug_line    0x000000000003326e      0x30f /usr/local/xenon/xenon/lib/32/libc.a(lib_a-stdio.o)
 .debug_line    0x000000000003357d      0x1e6 /usr/local/xenon/xenon/lib/32/libc.a(lib_a-stpcpy.o)
 .debug_line    0x0000000000033763      0x1bf /usr/local/xenon/xenon/lib/32/libc.a(lib_a-strcat.o)
 .debug_line    0x0000000000033922      0x281 /usr/local/xenon/xenon/lib/32/libc.a(lib_a-strchr.o)
 .debug_line    0x0000000000033ba3      0x1f3 /usr/local/xenon/xenon/lib/32/libc.a(lib_a-strcmp.o)
 .debug_line    0x0000000000033d96      0x1e9 /usr/local/xenon/xenon/lib/32/libc.a(lib_a-strcpy.o)
 .debug_line    0x0000000000033f7f      0x1c2 /usr/local/xenon/xenon/lib/32/libc.a(lib_a-strlen.o)
 .debug_line    0x0000000000034141      0x1d3 /usr/local/xenon/xenon/lib/32/libc.a(lib_a-strncasecmp.o)
 .debug_line    0x0000000000034314      0x253 /usr/local/xenon/xenon/lib/32/libc.a(lib_a-strncmp.o)
 .debug_line    0x0000000000034567      0x20d /usr/local/xenon/xenon/lib/32/libc.a(lib_a-strncpy.o)
 .debug_line    0x0000000000034774      0x19d /usr/local/xenon/xenon/lib/32/libc.a(lib_a-strnlen.o)
 .debug_line    0x0000000000034911      0x1e0 /usr/local/xenon/xenon/lib/32/libc.a(lib_a-strpbrk.o)
 .debug_line    0x0000000000034af1      0x1a9 /usr/local/xenon/xenon/lib/32/libc.a(lib_a-strrchr.o)
 .debug_line    0x0000000000034c9a     0x1855 /usr/local/xenon/xenon/lib/32/libc.a(lib_a-svfprintf.o)
 .debug_line    0x00000000000364ef      0x219 /usr/local/xenon/xenon/lib/32/libc.a(lib_a-time.o)
 .debug_line    0x0000000000036708      0x20c /usr/local/xenon/xenon/lib/32/libc.a(lib_a-towlower.o)
 .debug_line    0x0000000000036914      0x20c /usr/local/xenon/xenon/lib/32/libc.a(lib_a-towupper.o)
 .debug_line    0x0000000000036b20      0x40b /usr/local/xenon/xenon/lib/32/libc.a(lib_a-tzcalc_limits.o)
 .debug_line    0x0000000000036f2b      0x17a /usr/local/xenon/xenon/lib/32/libc.a(lib_a-tzlock.o)
 .debug_line    0x00000000000370a5      0x194 /usr/local/xenon/xenon/lib/32/libc.a(lib_a-tzset.o)
 .debug_line    0x0000000000037239      0x637 /usr/local/xenon/xenon/lib/32/libc.a(lib_a-tzset_r.o)
 .debug_line    0x0000000000037870      0x11b /usr/local/xenon/xenon/lib/32/libc.a(lib_a-tzvars.o)
 .debug_line    0x000000000003798b     0x1384 /usr/local/xenon/xenon/lib/32/libc.a(lib_a-vfiprintf.o)
 .debug_line    0x0000000000038d0f     0x19b6 /usr/local/xenon/xenon/lib/32/libc.a(lib_a-vfprintf.o)
 .debug_line    0x000000000003a6c5      0x209 /usr/local/xenon/xenon/lib/32/libc.a(lib_a-vsprintf.o)
 .debug_line    0x000000000003a8ce      0x30c /usr/local/xenon/xenon/lib/32/libc.a(lib_a-wcrtomb.o)
 .debug_line    0x000000000003abda      0x24a /usr/local/xenon/xenon/lib/32/libc.a(lib_a-wctob.o)
 .debug_line    0x000000000003ae24      0x257 /usr/local/xenon/xenon/lib/32/libc.a(lib_a-wctomb_r.o)
 .debug_line    0x000000000003b07b      0x1c6 /usr/local/xenon/xenon/lib/32/libc.a(lib_a-writer.o)
 .debug_line    0x000000000003b241      0x345 /usr/local/xenon/xenon/lib/32/libc.a(lib_a-wsetup.o)
 .debug_line    0x000000000003b586      0x274 /usr/local/xenon/xenon/lib/32/libc.a(lib_a-__call_atexit.o)
 .debug_line    0x000000000003b7fa      0x1c1 /usr/local/xenon/xenon/lib/32/libc.a(lib_a-closer.o)
 .debug_line    0x000000000003b9bb      0x1d7 /usr/local/xenon/xenon/lib/32/libc.a(lib_a-div.o)
 .debug_line    0x000000000003bb92     0x147b /usr/local/xenon/xenon/lib/32/libc.a(lib_a-dtoa.o)
 .debug_line    0x000000000003d00d      0x236 /usr/local/xenon/xenon/lib/32/libc.a(lib_a-flags.o)
 .debug_line    0x000000000003d243      0x3ab /usr/local/xenon/xenon/lib/32/libc.a(lib_a-fputwc.o)
 .debug_line    0x000000000003d5ee      0x6e2 /usr/local/xenon/xenon/lib/32/libc.a(lib_a-fvwrite.o)
 .debug_line    0x000000000003dcd0      0x275 /usr/local/xenon/xenon/lib/32/libc.a(lib_a-getenv_r.o)
 .debug_line    0x000000000003df45      0x240 /usr/local/xenon/xenon/lib/32/libc.a(lib_a-gettimeofdayr.o)
 .debug_line    0x000000000003e185      0x1f5 /usr/local/xenon/xenon/lib/32/libc.a(lib_a-gettzinfo.o)
 .debug_line    0x000000000003e37a      0x527 /usr/local/xenon/xenon/lib/32/libc.a(lib_a-gmtime_r.o)
 .debug_line    0x000000000003e8a1      0x1c2 /usr/local/xenon/xenon/lib/32/libc.a(lib_a-isattyr.o)
 .debug_line    0x000000000003ea63      0x204 /usr/local/xenon/xenon/lib/32/libc.a(lib_a-localeconv.o)
 .debug_line    0x000000000003ec67      0x1c6 /usr/local/xenon/xenon/lib/32/libc.a(lib_a-lseekr.o)
 .debug_line    0x000000000003ee2d      0x302 /usr/local/xenon/xenon/lib/32/libc.a(lib_a-mbsnrtowcs.o)
 .debug_line    0x000000000003f12f      0x235 /usr/local/xenon/xenon/lib/32/libc.a(lib_a-memchr.o)
 .debug_line    0x000000000003f364     0x1558 /usr/local/xenon/xenon/lib/32/libc.a(lib_a-mprec.o)
 .debug_line    0x00000000000408bc      0x2ff /usr/local/xenon/xenon/lib/32/libc.a(lib_a-putc.o)
 .debug_line    0x0000000000040bbb      0x1c5 /usr/local/xenon/xenon/lib/32/libc.a(lib_a-readr.o)
 .debug_line    0x0000000000040d80      0x82e /usr/local/xenon/xenon/lib/32/libc.a(lib_a-reallocr.o)
 .debug_line    0x00000000000415ae      0x2a2 /usr/local/xenon/xenon/lib/32/libc.a(lib_a-siscanf.o)
 .debug_line    0x0000000000041850      0x3e6 /usr/local/xenon/xenon/lib/32/libc.a(lib_a-strtoul.o)
 .debug_line    0x0000000000041c36     0x10ee /usr/local/xenon/xenon/lib/32/libc.a(lib_a-svfiprintf.o)
 .debug_line    0x0000000000042d24     0x1501 /usr/local/xenon/xenon/lib/32/libc.a(lib_a-svfiscanf.o)
 .debug_line    0x0000000000044225      0x4d2 /usr/local/xenon/xenon/lib/32/libc.a(lib_a-ungetc.o)
 .debug_line    0x00000000000446f7      0x35c /usr/local/xenon/xenon/lib/32/libc.a(lib_a-wbuf.o)
 .debug_line    0x0000000000044a53      0x213 /usr/local/xenon/xenon/lib/32/libc.a(lib_a-callocr.o)
 .debug_line    0x0000000000044c66       0x5c /usr/local/xenon/xenon/lib/32/libc.a(lib_a-environ.o)
 .debug_line    0x0000000000044cc2      0x175 /usr/local/xenon/xenon/lib/32/libc.a(lib_a-envlock.o)
 .debug_line    0x0000000000044e37      0x106 /usr/local/xenon/xenon/lib/32/libc.a(lib_a-iswspace.o)
 .debug_line    0x0000000000044f3d      0x207 /usr/local/xenon/xenon/lib/32/libc.a(lib_a-iswspace_l.o)
 .debug_line    0x0000000000045144      0x28e /usr/local/xenon/xenon/lib/32/libc.a(lib_a-sccl.o)
 .debug_line    0x00000000000453d2      0x3fa /usr/local/xenon/xenon/lib/32/libc.a(lib_a-strtol.o)
 .debug_line    0x00000000000457cc      0x41a /usr/local/xenon/xenon/lib/32/libc.a(lib_a-strtoll.o)
 .debug_line    0x0000000000045be6      0x3f3 /usr/local/xenon/xenon/lib/32/libc.a(lib_a-strtoull.o)
 .debug_line    0x0000000000045fd9      0x407 /usr/local/xenon/lib/gcc/xenon/9.2.0/32/libgcc.a(_divdi3.o)
 .debug_line    0x00000000000463e0      0x405 /usr/local/xenon/lib/gcc/xenon/9.2.0/32/libgcc.a(_moddi3.o)
 .debug_line    0x00000000000467e5      0x3d7 /usr/local/xenon/lib/gcc/xenon/9.2.0/32/libgcc.a(_udivdi3.o)
 .debug_line    0x0000000000046bbc      0x415 /usr/local/xenon/lib/gcc/xenon/9.2.0/32/libgcc.a(_umoddi3.o)

.debug_str      0x0000000000000000    0x14d42
 .debug_str     0x0000000000000000      0x1aa /usr/local/xenon/lib/gcc/xenon/9.2.0/../../../../xenon/lib/../lib/crt1.o
                                        0x1e4 (size before relaxing)
 .debug_str     0x00000000000001aa      0x95e main.o
                                        0xd0b (size before relaxing)
 .debug_str     0x0000000000000b08       0x1b /usr/local/xenon/usr/lib/libxenon.a(argv.o)
                                        0x171 (size before relaxing)
 .debug_str     0x0000000000000b23      0x6ca /usr/local/xenon/usr/lib/libxenon.a(ata.o)
                                        0xdca (size before relaxing)
 .debug_str     0x00000000000011ed      0x556 /usr/local/xenon/usr/lib/libxenon.a(newlib.o)
                                        0xfaf (size before relaxing)
 .debug_str     0x0000000000001743      0x1c5 /usr/local/xenon/usr/lib/libxenon.a(xenon_syscalls.o)
                                        0xba1 (size before relaxing)
 .debug_str     0x0000000000001908       0xf9 /usr/local/xenon/usr/lib/libxenon.a(c_except.o)
                                        0x6e2 (size before relaxing)
 .debug_str     0x0000000000001a01      0x113 /usr/local/xenon/usr/lib/libxenon.a(vm.o)
                                        0x6fc (size before relaxing)
 .debug_str     0x0000000000001b14       0x2d /usr/local/xenon/usr/lib/libxenon.a(time.o)
                                        0x174 (size before relaxing)
 .debug_str     0x0000000000001b41      0x5a5 /usr/local/xenon/usr/lib/libxenon.a(usbmain.o)
                                        0xbee (size before relaxing)
 .debug_str     0x00000000000020e6      0xd15 /usr/local/xenon/usr/lib/libxenon.a(tinyehci.o)
                                       0x1761 (size before relaxing)
 .debug_str     0x0000000000002dfb       0x73 /usr/local/xenon/usr/lib/libxenon.a(debug.o)
                                        0x5d7 (size before relaxing)
 .debug_str     0x0000000000002e6e      0x212 /usr/local/xenon/usr/lib/libxenon.a(xenon_smc.o)
                                        0x815 (size before relaxing)
 .debug_str     0x0000000000003080      0x184 /usr/local/xenon/usr/lib/libxenon.a(xenon_power.o)
                                        0x7bf (size before relaxing)
 .debug_str     0x0000000000003204       0x27 /usr/local/xenon/usr/lib/libxenon.a(xenon_secotp.o)
                                        0x19b (size before relaxing)
 .debug_str     0x000000000000322b       0x2c /usr/local/xenon/usr/lib/libxenon.a(xenon_uart.o)
                                        0x16f (size before relaxing)
 .debug_str     0x0000000000003257      0x2a1 /usr/local/xenon/usr/lib/libxenon.a(xenon_sfcx.o)
                                        0xb14 (size before relaxing)
 .debug_str     0x00000000000034f8      0x1d8 /usr/local/xenon/usr/lib/libxenon.a(xenon_config.o)
                                        0x8b9 (size before relaxing)
 .debug_str     0x00000000000036d0      0x81d /usr/local/xenon/usr/lib/libxenon.a(xenos.o)
                                        0xf61 (size before relaxing)
 .debug_str     0x0000000000003eed       0xd1 /usr/local/xenon/usr/lib/libxenon.a(xenos_edid.o)
                                        0xa8f (size before relaxing)
 .debug_str     0x0000000000003fbe      0x46c /usr/local/xenon/usr/lib/libxenon.a(enet.o)
                                        0xb88 (size before relaxing)
 .debug_str     0x000000000000442a      0x2f2 /usr/local/xenon/usr/lib/libxenon.a(xb360.o)
                                        0xcb7 (size before relaxing)
 .debug_str     0x000000000000471c      0x155 /usr/local/xenon/usr/lib/libxenon.a(console.o)
                                        0x78a (size before relaxing)
 .debug_str     0x0000000000004871      0x134 /usr/local/xenon/usr/lib/libxenon.a(lib_malloc.o)
                                        0x76c (size before relaxing)
 .debug_str     0x00000000000049a5       0x17 /usr/local/xenon/usr/lib/libxenon.a(io.o)
                                        0x16b (size before relaxing)
 .debug_str     0x00000000000049bc      0x774 /usr/local/xenon/usr/lib/libxenon.a(ohci.o)
                                       0x13a8 (size before relaxing)
 .debug_str     0x0000000000005130      0x33d /usr/local/xenon/usr/lib/libxenon.a(usbd.o)
                                        0xfa9 (size before relaxing)
 .debug_str     0x000000000000546d      0x110 /usr/local/xenon/usr/lib/libxenon.a(usbdevs.o)
                                        0xc80 (size before relaxing)
 .debug_str     0x000000000000557d      0x172 /usr/local/xenon/usr/lib/libxenon.a(usbhid.o)
                                        0xdcf (size before relaxing)
 .debug_str     0x00000000000056ef      0x2b2 /usr/local/xenon/usr/lib/libxenon.a(usbhub.o)
                                       0x115a (size before relaxing)
 .debug_str     0x00000000000059a1       0x5b /usr/local/xenon/usr/lib/libxenon.a(usb_os.o)
                                        0x731 (size before relaxing)
 .debug_str     0x00000000000059fc       0x2b /usr/local/xenon/usr/lib/libxenon.a(xenon_gpio.o)
                                        0x194 (size before relaxing)
 .debug_str     0x0000000000005a27       0x85 /usr/local/xenon/usr/lib/libxenon.a(mem.o)
                                        0x741 (size before relaxing)
 .debug_str     0x0000000000005aac      0x4ab /usr/local/xenon/usr/lib/libxenon.a(pbuf.o)
                                        0xe77 (size before relaxing)
 .debug_str     0x0000000000005f57       0x2b /usr/local/xenon/usr/lib/libxenon.a(stats.o)
                                        0x691 (size before relaxing)
 .debug_str     0x0000000000005f82      0x3e3 /usr/local/xenon/usr/lib/libxenon.a(etharp.o)
                                        0xdc7 (size before relaxing)
 .debug_str     0x0000000000006365      0x3bd /usr/local/xenon/usr/lib/libxenon.a(dhcp.o)
                                        0xeea (size before relaxing)
 .debug_str     0x0000000000006722       0x46 /usr/local/xenon/usr/lib/libxenon.a(hmac_sha1.o)
                                        0x6ac (size before relaxing)
 .debug_str     0x0000000000006768       0x1a /usr/local/xenon/usr/lib/libxenon.a(rc4.o)
                                         0xef (size before relaxing)
 .debug_str     0x0000000000006782       0x4a /usr/local/xenon/usr/lib/libxenon.a(sha1.o)
                                        0x614 (size before relaxing)
 .debug_str     0x00000000000067cc       0x4a /usr/local/xenon/usr/lib/libxenon.a(lib_queue.o)
                                        0x5d0 (size before relaxing)
 .debug_str     0x0000000000006816       0x34 /usr/local/xenon/usr/lib/libxenon.a(dummy.o)
                                        0xaaf (size before relaxing)
 .debug_str     0x000000000000684a      0x1cd /usr/local/xenon/usr/lib/libxenon.a(usbctrl.o)
                                        0xed5 (size before relaxing)
 .debug_str     0x0000000000006a17       0xef /usr/local/xenon/usr/lib/libxenon.a(usbdebug.o)
                                        0xea1 (size before relaxing)
 .debug_str     0x0000000000006b06      0x1d2 /usr/local/xenon/usr/lib/libxenon.a(dns.o)
                                        0xa7e (size before relaxing)
 .debug_str     0x0000000000006cd8       0x59 /usr/local/xenon/usr/lib/libxenon.a(memp.o)
                                        0xc25 (size before relaxing)
 .debug_str     0x0000000000006d31       0xf5 /usr/local/xenon/usr/lib/libxenon.a(netif.o)
                                        0xe78 (size before relaxing)
 .debug_str     0x0000000000006e26      0x36b /usr/local/xenon/usr/lib/libxenon.a(tcp.o)
                                        0xf5c (size before relaxing)
 .debug_str     0x0000000000007191       0x77 /usr/local/xenon/usr/lib/libxenon.a(ip_addr.o)
                                        0x725 (size before relaxing)
 .debug_str     0x0000000000007208      0x133 /usr/local/xenon/usr/lib/libxenon.a(ip.o)
                                        0xe72 (size before relaxing)
 .debug_str     0x000000000000733b      0x28d /usr/local/xenon/usr/lib/libxenon.a(ip_frag.o)
                                        0xc1f (size before relaxing)
 .debug_str     0x00000000000075c8      0x165 /usr/local/xenon/usr/lib/libxenon.a(tcp_out.o)
                                        0xe79 (size before relaxing)
 .debug_str     0x000000000000772d       0x72 /usr/local/xenon/usr/lib/libxenon.a(udp.o)
                                        0xc5b (size before relaxing)
 .debug_str     0x000000000000779f       0x86 /usr/local/xenon/usr/lib/libxenon.a(raw.o)
                                        0x9e0 (size before relaxing)
 .debug_str     0x0000000000007825       0x21 /usr/local/xenon/usr/lib/libxenon.a(timers.o)
                                        0xa55 (size before relaxing)
 .debug_str     0x0000000000007846       0x46 /usr/local/xenon/usr/lib/libxenon.a(input.o)
                                        0x209 (size before relaxing)
 .debug_str     0x000000000000788c      0x119 /usr/local/xenon/usr/lib/libxenon.a(tcp_in.o)
                                        0xe0c (size before relaxing)
 .debug_str     0x00000000000079a5       0x90 /usr/local/xenon/usr/lib/libxenon.a(inet_chksum.o)
                                        0x661 (size before relaxing)
 .debug_str     0x0000000000007a35       0x5c /usr/local/xenon/usr/lib/libxenon.a(icmp.o)
                                        0x9a2 (size before relaxing)
 .debug_str     0x0000000000007a91      0x472 /usr/local/xenon/usr/lib/libfat.a(libfat.o)
                                        0xfc9 (size before relaxing)
 .debug_str     0x0000000000007f03      0x59c /usr/local/xenon/usr/lib/libfat.a(partition.o)
                                       0x13ff (size before relaxing)
 .debug_str     0x000000000000849f      0x1da /usr/local/xenon/usr/lib/libfat.a(cache.o)
                                        0xa69 (size before relaxing)
 .debug_str     0x0000000000008679      0x7ee /usr/local/xenon/usr/lib/libfat.a(directory.o)
                                       0x13b3 (size before relaxing)
 .debug_str     0x0000000000008e67       0x95 /usr/local/xenon/usr/lib/libfat.a(disc.o)
                                        0x3a9 (size before relaxing)
 .debug_str     0x0000000000008efc      0x1f1 /usr/local/xenon/usr/lib/libfat.a(fatdir.o)
                                       0x1317 (size before relaxing)
 .debug_str     0x00000000000090ed      0x23b /usr/local/xenon/usr/lib/libfat.a(fatfile.o)
                                       0x11d4 (size before relaxing)
 .debug_str     0x0000000000009328       0xc7 /usr/local/xenon/usr/lib/libfat.a(file_allocation_table.o)
                                        0xb2e (size before relaxing)
 .debug_str     0x00000000000093ef       0x79 /usr/local/xenon/usr/lib/libfat.a(filetime.o)
                                        0x6a5 (size before relaxing)
 .debug_str     0x0000000000009468       0x4e /usr/local/xenon/usr/lib/libfat.a(lock.o)
                                        0x1fb (size before relaxing)
 .debug_str     0x00000000000094b6       0x83 /usr/local/xenon/lib/gcc/xenon/9.2.0/32/libgcc.a(crtsavgpr.o)
 .debug_str     0x0000000000009539       0x38 /usr/local/xenon/lib/gcc/xenon/9.2.0/32/libgcc.a(crtresxgpr.o)
                                         0x84 (size before relaxing)
 .debug_str     0x0000000000009571     0x8953 /usr/local/xenon/lib/gcc/xenon/9.2.0/32/libgcc.a(unwind-dw2-fde-dip.o)
                                       0x8ae3 (size before relaxing)
 .debug_str     0x0000000000011ec4       0xcd /usr/local/xenon/xenon/lib/32/libc.a(lib_a-assert.o)
                                        0x577 (size before relaxing)
 .debug_str     0x0000000000011f91      0x2cf /usr/local/xenon/xenon/lib/32/libc.a(lib_a-ctype_.o)
                                        0x84f (size before relaxing)
 .debug_str     0x0000000000012260       0x84 /usr/local/xenon/xenon/lib/32/libc.a(lib_a-errno.o)
                                        0x549 (size before relaxing)
 .debug_str     0x00000000000122e4       0x4a /usr/local/xenon/xenon/lib/32/libc.a(lib_a-exit.o)
                                        0x583 (size before relaxing)
 .debug_str     0x000000000001232e      0x1d4 /usr/local/xenon/xenon/lib/32/libc.a(lib_a-fclose.o)
                                        0x6d2 (size before relaxing)
 .debug_str     0x0000000000012502       0x69 /usr/local/xenon/xenon/lib/32/libc.a(lib_a-fflush.o)
                                        0x6e9 (size before relaxing)
 .debug_str     0x000000000001256b      0x134 /usr/local/xenon/xenon/lib/32/libc.a(lib_a-findfp.o)
                                        0x7f9 (size before relaxing)
 .debug_str     0x000000000001269f       0x55 /usr/local/xenon/xenon/lib/32/libc.a(lib_a-fiprintf.o)
                                        0x5b4 (size before relaxing)
 .debug_str     0x00000000000126f4       0x5b /usr/local/xenon/xenon/lib/32/libc.a(lib_a-fopen.o)
                                        0x6ed (size before relaxing)
 .debug_str     0x000000000001274f       0x70 /usr/local/xenon/xenon/lib/32/libc.a(lib_a-fread.o)
                                        0x6ec (size before relaxing)
 .debug_str     0x00000000000127bf      0x184 /usr/local/xenon/xenon/lib/32/libc.a(lib_a-freer.o)
                                        0x718 (size before relaxing)
 .debug_str     0x0000000000012943       0x4a /usr/local/xenon/xenon/lib/32/libc.a(lib_a-fseek.o)
                                        0x6a8 (size before relaxing)
 .debug_str     0x000000000001298d       0x69 /usr/local/xenon/xenon/lib/32/libc.a(lib_a-fseeko.o)
                                        0x887 (size before relaxing)
 .debug_str     0x00000000000129f6       0x8b /usr/local/xenon/xenon/lib/32/libc.a(lib_a-fstatr.o)
                                        0x6dd (size before relaxing)
 .debug_str     0x0000000000012a81       0x4c /usr/local/xenon/xenon/lib/32/libc.a(lib_a-ftell.o)
                                        0x69a (size before relaxing)
 .debug_str     0x0000000000012acd       0x41 /usr/local/xenon/xenon/lib/32/libc.a(lib_a-ftello.o)
                                        0x6ab (size before relaxing)
 .debug_str     0x0000000000012b0e       0x48 /usr/local/xenon/xenon/lib/32/libc.a(lib_a-fwalk.o)
                                        0x6ad (size before relaxing)
 .debug_str     0x0000000000012b56       0x8d /usr/local/xenon/xenon/lib/32/libc.a(lib_a-fwrite.o)
                                        0x6ef (size before relaxing)
 .debug_str     0x0000000000012be3       0x46 /usr/local/xenon/xenon/lib/32/libc.a(lib_a-impure.o)
                                        0x537 (size before relaxing)
 .debug_str     0x0000000000012c29      0x14a /usr/local/xenon/xenon/lib/32/libc.a(lib_a-lcltime_r.o)
                                        0x68d (size before relaxing)
 .debug_str     0x0000000000012d73      0x106 /usr/local/xenon/xenon/lib/32/libc.a(lib_a-locale.o)
                                        0x909 (size before relaxing)
 .debug_str     0x0000000000012e79       0x6a /usr/local/xenon/xenon/lib/32/libc.a(lib_a-makebuf.o)
                                        0x837 (size before relaxing)
 .debug_str     0x0000000000012ee3       0x4e /usr/local/xenon/xenon/lib/32/libc.a(lib_a-malign.o)
                                        0x560 (size before relaxing)
 .debug_str     0x0000000000012f31       0x31 /usr/local/xenon/xenon/lib/32/libc.a(lib_a-malignr.o)
                                        0x714 (size before relaxing)
 .debug_str     0x0000000000012f62       0x3b /usr/local/xenon/xenon/lib/32/libc.a(lib_a-malloc.o)
                                        0x568 (size before relaxing)
 .debug_str     0x0000000000012f9d       0x91 /usr/local/xenon/xenon/lib/32/libc.a(lib_a-mallocr.o)
                                        0x79f (size before relaxing)
 .debug_str     0x000000000001302e       0x47 /usr/local/xenon/xenon/lib/32/libc.a(lib_a-mbrtowc.o)
                                        0x8d4 (size before relaxing)
 .debug_str     0x0000000000013075       0x59 /usr/local/xenon/xenon/lib/32/libc.a(lib_a-mbsrtowcs.o)
                                        0x58f (size before relaxing)
 .debug_str     0x00000000000130ce       0x56 /usr/local/xenon/xenon/lib/32/libc.a(lib_a-mbtowc_r.o)
                                        0x8da (size before relaxing)
 .debug_str     0x0000000000013124       0x87 /usr/local/xenon/xenon/lib/32/libc.a(lib_a-memcmp.o)
                                        0x53b (size before relaxing)
 .debug_str     0x00000000000131ab       0x62 /usr/local/xenon/xenon/lib/32/libc.a(lib_a-memcpy.o)
                                        0x877 (size before relaxing)
 .debug_str     0x000000000001320d       0x4e /usr/local/xenon/xenon/lib/32/libc.a(lib_a-memmove.o)
                                        0x883 (size before relaxing)
 .debug_str     0x000000000001325b       0x48 /usr/local/xenon/xenon/lib/32/libc.a(lib_a-memset.o)
                                        0x864 (size before relaxing)
 .debug_str     0x00000000000132a3       0xab /usr/local/xenon/xenon/lib/32/libc.a(lib_a-mktime.o)
                                        0x6fd (size before relaxing)
 .debug_str     0x000000000001334e       0x40 /usr/local/xenon/xenon/lib/32/libc.a(lib_a-month_lengths.o)
                                        0x55c (size before relaxing)
 .debug_str     0x000000000001338e       0x39 /usr/local/xenon/xenon/lib/32/libc.a(lib_a-openr.o)
                                        0x596 (size before relaxing)
 .debug_str     0x00000000000133c7       0x50 /usr/local/xenon/xenon/lib/32/libc.a(lib_a-printf.o)
                                        0x6e3 (size before relaxing)
 .debug_str     0x0000000000013417       0x4e /usr/local/xenon/xenon/lib/32/libc.a(lib_a-putchar.o)
                                        0x688 (size before relaxing)
 .debug_str     0x0000000000013465       0x40 /usr/local/xenon/xenon/lib/32/libc.a(lib_a-puts.o)
                                        0x6ec (size before relaxing)
 .debug_str     0x00000000000134a5       0x65 /usr/local/xenon/xenon/lib/32/libc.a(lib_a-reent.o)
                                        0x573 (size before relaxing)
 .debug_str     0x000000000001350a       0x4c /usr/local/xenon/xenon/lib/32/libc.a(lib_a-refill.o)
                                        0x6f0 (size before relaxing)
 .debug_str     0x0000000000013556       0x39 /usr/local/xenon/xenon/lib/32/libc.a(lib_a-sbrkr.o)
                                        0x579 (size before relaxing)
 .debug_str     0x000000000001358f       0x55 /usr/local/xenon/xenon/lib/32/libc.a(lib_a-snprintf.o)
                                        0x712 (size before relaxing)
 .debug_str     0x00000000000135e4       0x46 /usr/local/xenon/xenon/lib/32/libc.a(lib_a-sprintf.o)
                                        0x6ec (size before relaxing)
 .debug_str     0x000000000001362a       0x6f /usr/local/xenon/xenon/lib/32/libc.a(lib_a-stdio.o)
                                        0x701 (size before relaxing)
 .debug_str     0x0000000000013699       0x3b /usr/local/xenon/xenon/lib/32/libc.a(lib_a-stpcpy.o)
                                        0x54c (size before relaxing)
 .debug_str     0x00000000000136d4       0x46 /usr/local/xenon/xenon/lib/32/libc.a(lib_a-strcat.o)
                                        0x546 (size before relaxing)
 .debug_str     0x000000000001371a       0x3b /usr/local/xenon/xenon/lib/32/libc.a(lib_a-strchr.o)
                                        0x546 (size before relaxing)
 .debug_str     0x0000000000013755       0x3b /usr/local/xenon/xenon/lib/32/libc.a(lib_a-strcmp.o)
                                        0x534 (size before relaxing)
 .debug_str     0x0000000000013790       0x3b /usr/local/xenon/xenon/lib/32/libc.a(lib_a-strcpy.o)
                                        0x556 (size before relaxing)
 .debug_str     0x00000000000137cb       0x3b /usr/local/xenon/xenon/lib/32/libc.a(lib_a-strlen.o)
                                        0x54e (size before relaxing)
 .debug_str     0x0000000000013806       0x40 /usr/local/xenon/xenon/lib/32/libc.a(lib_a-strncasecmp.o)
                                        0x16e (size before relaxing)
 .debug_str     0x0000000000013846       0x3c /usr/local/xenon/xenon/lib/32/libc.a(lib_a-strncmp.o)
                                        0x53d (size before relaxing)
 .debug_str     0x0000000000013882       0x3c /usr/local/xenon/xenon/lib/32/libc.a(lib_a-strncpy.o)
                                        0x565 (size before relaxing)
 .debug_str     0x00000000000138be       0x3c /usr/local/xenon/xenon/lib/32/libc.a(lib_a-strnlen.o)
                                        0x543 (size before relaxing)
 .debug_str     0x00000000000138fa       0x3c /usr/local/xenon/xenon/lib/32/libc.a(lib_a-strpbrk.o)
                                        0x536 (size before relaxing)
 .debug_str     0x0000000000013936       0x3c /usr/local/xenon/xenon/lib/32/libc.a(lib_a-strrchr.o)
                                        0x542 (size before relaxing)
 .debug_str     0x0000000000013972      0x1ad /usr/local/xenon/xenon/lib/32/libc.a(lib_a-svfprintf.o)
                                        0xc30 (size before relaxing)
 .debug_str     0x0000000000013b1f       0x47 /usr/local/xenon/xenon/lib/32/libc.a(lib_a-time.o)
                                        0x5a0 (size before relaxing)
 .debug_str     0x0000000000013b66       0x3c /usr/local/xenon/xenon/lib/32/libc.a(lib_a-towlower.o)
                                        0x85a (size before relaxing)
 .debug_str     0x0000000000013ba2       0x3c /usr/local/xenon/xenon/lib/32/libc.a(lib_a-towupper.o)
                                        0x85a (size before relaxing)
 .debug_str     0x0000000000013bde       0x66 /usr/local/xenon/xenon/lib/32/libc.a(lib_a-tzcalc_limits.o)
                                        0x62c (size before relaxing)
 .debug_str     0x0000000000013c44       0x44 /usr/local/xenon/xenon/lib/32/libc.a(lib_a-tzlock.o)
                                        0x576 (size before relaxing)
 .debug_str     0x0000000000013c88       0x50 /usr/local/xenon/xenon/lib/32/libc.a(lib_a-tzset.o)
                                        0x592 (size before relaxing)
 .debug_str     0x0000000000013cd8       0x82 /usr/local/xenon/xenon/lib/32/libc.a(lib_a-tzset_r.o)
                                        0x6a2 (size before relaxing)
 .debug_str     0x0000000000013d5a       0x39 /usr/local/xenon/xenon/lib/32/libc.a(lib_a-tzvars.o)
                                        0x545 (size before relaxing)
 .debug_str     0x0000000000013d93       0x3b /usr/local/xenon/xenon/lib/32/libc.a(lib_a-vfiprintf.o)
                                        0xbdf (size before relaxing)
 .debug_str     0x0000000000013dce        0x9 /usr/local/xenon/xenon/lib/32/libc.a(lib_a-vfprintf.o)
                                        0xc77 (size before relaxing)
 .debug_str     0x0000000000013dd7       0x48 /usr/local/xenon/xenon/lib/32/libc.a(lib_a-vsprintf.o)
                                        0x6c6 (size before relaxing)
 .debug_str     0x0000000000013e1f       0x47 /usr/local/xenon/xenon/lib/32/libc.a(lib_a-wcrtomb.o)
                                        0x8d4 (size before relaxing)
 .debug_str     0x0000000000013e66       0x3a /usr/local/xenon/xenon/lib/32/libc.a(lib_a-wctob.o)
                                        0x8ae (size before relaxing)
 .debug_str     0x0000000000013ea0       0x5d /usr/local/xenon/xenon/lib/32/libc.a(lib_a-wctomb_r.o)
                                        0x8e1 (size before relaxing)
 .debug_str     0x0000000000013efd       0x3a /usr/local/xenon/xenon/lib/32/libc.a(lib_a-writer.o)
                                        0x57d (size before relaxing)
 .debug_str     0x0000000000013f37       0x3a /usr/local/xenon/xenon/lib/32/libc.a(lib_a-wsetup.o)
                                        0x6bb (size before relaxing)
 .debug_str     0x0000000000013f71       0x69 /usr/local/xenon/xenon/lib/32/libc.a(lib_a-__call_atexit.o)
                                        0x580 (size before relaxing)
 .debug_str     0x0000000000013fda       0x3a /usr/local/xenon/xenon/lib/32/libc.a(lib_a-closer.o)
                                        0x56d (size before relaxing)
 .debug_str     0x0000000000014014       0x3e /usr/local/xenon/xenon/lib/32/libc.a(lib_a-div.o)
                                        0x545 (size before relaxing)
 .debug_str     0x0000000000014052      0x16b /usr/local/xenon/xenon/lib/32/libc.a(lib_a-dtoa.o)
                                        0xa3d (size before relaxing)
 .debug_str     0x00000000000141bd       0x3e /usr/local/xenon/xenon/lib/32/libc.a(lib_a-flags.o)
                                        0x570 (size before relaxing)
 .debug_str     0x00000000000141fb       0x57 /usr/local/xenon/xenon/lib/32/libc.a(lib_a-fputwc.o)
                                        0x701 (size before relaxing)
 .debug_str     0x0000000000014252       0x5c /usr/local/xenon/xenon/lib/32/libc.a(lib_a-fvwrite.o)
                                        0x73a (size before relaxing)
 .debug_str     0x00000000000142ae       0x6a /usr/local/xenon/xenon/lib/32/libc.a(lib_a-getenv_r.o)
                                        0x596 (size before relaxing)
 .debug_str     0x0000000000014318       0x41 /usr/local/xenon/xenon/lib/32/libc.a(lib_a-gettimeofdayr.o)
                                        0x5cc (size before relaxing)
 .debug_str     0x0000000000014359       0x3c /usr/local/xenon/xenon/lib/32/libc.a(lib_a-gettzinfo.o)
                                        0x5e8 (size before relaxing)
 .debug_str     0x0000000000014395       0x5a /usr/local/xenon/xenon/lib/32/libc.a(lib_a-gmtime_r.o)
                                        0x5fa (size before relaxing)
 .debug_str     0x00000000000143ef       0x3b /usr/local/xenon/xenon/lib/32/libc.a(lib_a-isattyr.o)
                                        0x570 (size before relaxing)
 .debug_str     0x000000000001442a       0x68 /usr/local/xenon/xenon/lib/32/libc.a(lib_a-localeconv.o)
                                        0x8c9 (size before relaxing)
 .debug_str     0x0000000000014492       0x3a /usr/local/xenon/xenon/lib/32/libc.a(lib_a-lseekr.o)
                                        0x574 (size before relaxing)
 .debug_str     0x00000000000144cc       0x52 /usr/local/xenon/xenon/lib/32/libc.a(lib_a-mbsnrtowcs.o)
                                        0x5a3 (size before relaxing)
 .debug_str     0x000000000001451e       0x40 /usr/local/xenon/xenon/lib/32/libc.a(lib_a-memchr.o)
                                        0x555 (size before relaxing)
 .debug_str     0x000000000001455e       0x94 /usr/local/xenon/xenon/lib/32/libc.a(lib_a-mprec.o)
                                        0x9e6 (size before relaxing)
 .debug_str     0x00000000000145f2       0x3d /usr/local/xenon/xenon/lib/32/libc.a(lib_a-putc.o)
                                        0x6b4 (size before relaxing)
 .debug_str     0x000000000001462f       0x39 /usr/local/xenon/xenon/lib/32/libc.a(lib_a-readr.o)
                                        0x57a (size before relaxing)
 .debug_str     0x0000000000014668       0x3e /usr/local/xenon/xenon/lib/32/libc.a(lib_a-reallocr.o)
                                        0x756 (size before relaxing)
 .debug_str     0x00000000000146a6       0x55 /usr/local/xenon/xenon/lib/32/libc.a(lib_a-siscanf.o)
                                        0x6f5 (size before relaxing)
 .debug_str     0x00000000000146fb       0x60 /usr/local/xenon/xenon/lib/32/libc.a(lib_a-strtoul.o)
                                        0x8f7 (size before relaxing)
 .debug_str     0x000000000001475b        0xe /usr/local/xenon/xenon/lib/32/libc.a(lib_a-svfiprintf.o)
                                        0xbb1 (size before relaxing)
 .debug_str     0x0000000000014769      0x11b /usr/local/xenon/xenon/lib/32/libc.a(lib_a-svfiscanf.o)
                                        0xbab (size before relaxing)
 .debug_str     0x0000000000014884       0x4b /usr/local/xenon/xenon/lib/32/libc.a(lib_a-ungetc.o)
                                        0x6d0 (size before relaxing)
 .debug_str     0x00000000000148cf       0x40 /usr/local/xenon/xenon/lib/32/libc.a(lib_a-wbuf.o)
                                        0x6c0 (size before relaxing)
 .debug_str     0x000000000001490f        0xf /usr/local/xenon/xenon/lib/32/libc.a(lib_a-callocr.o)
                                        0x6c3 (size before relaxing)
 .debug_str     0x000000000001491e       0x48 /usr/local/xenon/xenon/lib/32/libc.a(lib_a-environ.o)
                                         0xe0 (size before relaxing)
 .debug_str     0x0000000000014966       0x52 /usr/local/xenon/xenon/lib/32/libc.a(lib_a-envlock.o)
                                        0x55c (size before relaxing)
 .debug_str     0x00000000000149b8       0x47 /usr/local/xenon/xenon/lib/32/libc.a(lib_a-iswspace.o)
                                        0x15d (size before relaxing)
 .debug_str     0x00000000000149ff       0x3e /usr/local/xenon/xenon/lib/32/libc.a(lib_a-iswspace_l.o)
                                        0x865 (size before relaxing)
 .debug_str     0x0000000000014a3d       0x48 /usr/local/xenon/xenon/lib/32/libc.a(lib_a-sccl.o)
                                        0x67b (size before relaxing)
 .debug_str     0x0000000000014a85       0x56 /usr/local/xenon/xenon/lib/32/libc.a(lib_a-strtol.o)
                                        0x8f2 (size before relaxing)
 .debug_str     0x0000000000014adb       0x4f /usr/local/xenon/xenon/lib/32/libc.a(lib_a-strtoll.o)
                                        0x8f7 (size before relaxing)
 .debug_str     0x0000000000014b2a       0x52 /usr/local/xenon/xenon/lib/32/libc.a(lib_a-strtoull.o)
                                        0x8fc (size before relaxing)
 .debug_str     0x0000000000014b7c      0x1a9 /usr/local/xenon/lib/gcc/xenon/9.2.0/32/libgcc.a(_divdi3.o)
                                        0x5fb (size before relaxing)
 .debug_str     0x0000000000014d25        0x9 /usr/local/xenon/lib/gcc/xenon/9.2.0/32/libgcc.a(_moddi3.o)
                                        0x5fb (size before relaxing)
 .debug_str     0x0000000000014d2e        0xa /usr/local/xenon/lib/gcc/xenon/9.2.0/32/libgcc.a(_udivdi3.o)
                                        0x5fc (size before relaxing)
 .debug_str     0x0000000000014d38        0xa /usr/local/xenon/lib/gcc/xenon/9.2.0/32/libgcc.a(_umoddi3.o)
                                        0x5fc (size before relaxing)

.comment        0x0000000000000000       0x11
 .comment       0x0000000000000000       0x11 /usr/local/xenon/lib/gcc/xenon/9.2.0/../../../../xenon/lib/../lib/crt1.o
                                         0x12 (size before relaxing)
 .comment       0x0000000000000011       0x12 main.o
 .comment       0x0000000000000011       0x12 /usr/local/xenon/usr/lib/libxenon.a(argv.o)
 .comment       0x0000000000000011       0x12 /usr/local/xenon/usr/lib/libxenon.a(ata.o)
 .comment       0x0000000000000011       0x12 /usr/local/xenon/usr/lib/libxenon.a(newlib.o)
 .comment       0x0000000000000011       0x12 /usr/local/xenon/usr/lib/libxenon.a(xenon_syscalls.o)
 .comment       0x0000000000000011       0x12 /usr/local/xenon/usr/lib/libxenon.a(c_except.o)
 .comment       0x0000000000000011       0x12 /usr/local/xenon/usr/lib/libxenon.a(vm.o)
 .comment       0x0000000000000011       0x12 /usr/local/xenon/usr/lib/libxenon.a(time.o)
 .comment       0x0000000000000011       0x12 /usr/local/xenon/usr/lib/libxenon.a(usbmain.o)
 .comment       0x0000000000000011       0x12 /usr/local/xenon/usr/lib/libxenon.a(tinyehci.o)
 .comment       0x0000000000000011       0x12 /usr/local/xenon/usr/lib/libxenon.a(debug.o)
 .comment       0x0000000000000011       0x12 /usr/local/xenon/usr/lib/libxenon.a(xenon_smc.o)
 .comment       0x0000000000000011       0x12 /usr/local/xenon/usr/lib/libxenon.a(xenon_power.o)
 .comment       0x0000000000000011       0x12 /usr/local/xenon/usr/lib/libxenon.a(xenon_secotp.o)
 .comment       0x0000000000000011       0x12 /usr/local/xenon/usr/lib/libxenon.a(xenon_uart.o)
 .comment       0x0000000000000011       0x12 /usr/local/xenon/usr/lib/libxenon.a(xenon_sfcx.o)
 .comment       0x0000000000000011       0x12 /usr/local/xenon/usr/lib/libxenon.a(xenon_config.o)
 .comment       0x0000000000000011       0x12 /usr/local/xenon/usr/lib/libxenon.a(xenos.o)
 .comment       0x0000000000000011       0x12 /usr/local/xenon/usr/lib/libxenon.a(xenos_edid.o)
 .comment       0x0000000000000011       0x12 /usr/local/xenon/usr/lib/libxenon.a(enet.o)
 .comment       0x0000000000000011       0x12 /usr/local/xenon/usr/lib/libxenon.a(xb360.o)
 .comment       0x0000000000000011       0x12 /usr/local/xenon/usr/lib/libxenon.a(console.o)
 .comment       0x0000000000000011       0x12 /usr/local/xenon/usr/lib/libxenon.a(lib_malloc.o)
 .comment       0x0000000000000011       0x12 /usr/local/xenon/usr/lib/libxenon.a(io.o)
 .comment       0x0000000000000011       0x12 /usr/local/xenon/usr/lib/libxenon.a(ohci.o)
 .comment       0x0000000000000011       0x12 /usr/local/xenon/usr/lib/libxenon.a(usbd.o)
 .comment       0x0000000000000011       0x12 /usr/local/xenon/usr/lib/libxenon.a(usbdevs.o)
 .comment       0x0000000000000011       0x12 /usr/local/xenon/usr/lib/libxenon.a(usbhid.o)
 .comment       0x0000000000000011       0x12 /usr/local/xenon/usr/lib/libxenon.a(usbhub.o)
 .comment       0x0000000000000011       0x12 /usr/local/xenon/usr/lib/libxenon.a(usb_os.o)
 .comment       0x0000000000000011       0x12 /usr/local/xenon/usr/lib/libxenon.a(xenon_gpio.o)
 .comment       0x0000000000000011       0x12 /usr/local/xenon/usr/lib/libxenon.a(mem.o)
 .comment       0x0000000000000011       0x12 /usr/local/xenon/usr/lib/libxenon.a(pbuf.o)
 .comment       0x0000000000000011       0x12 /usr/local/xenon/usr/lib/libxenon.a(stats.o)
 .comment       0x0000000000000011       0x12 /usr/local/xenon/usr/lib/libxenon.a(etharp.o)
 .comment       0x0000000000000011       0x12 /usr/local/xenon/usr/lib/libxenon.a(dhcp.o)
 .comment       0x0000000000000011       0x12 /usr/local/xenon/usr/lib/libxenon.a(hmac_sha1.o)
 .comment       0x0000000000000011       0x12 /usr/local/xenon/usr/lib/libxenon.a(rc4.o)
 .comment       0x0000000000000011       0x12 /usr/local/xenon/usr/lib/libxenon.a(sha1.o)
 .comment       0x0000000000000011       0x12 /usr/local/xenon/usr/lib/libxenon.a(lib_queue.o)
 .comment       0x0000000000000011       0x12 /usr/local/xenon/usr/lib/libxenon.a(dummy.o)
 .comment       0x0000000000000011       0x12 /usr/local/xenon/usr/lib/libxenon.a(usbctrl.o)
 .comment       0x0000000000000011       0x12 /usr/local/xenon/usr/lib/libxenon.a(usbdebug.o)
 .comment       0x0000000000000011       0x12 /usr/local/xenon/usr/lib/libxenon.a(dns.o)
 .comment       0x0000000000000011       0x12 /usr/local/xenon/usr/lib/libxenon.a(memp.o)
 .comment       0x0000000000000011       0x12 /usr/local/xenon/usr/lib/libxenon.a(netif.o)
 .comment       0x0000000000000011       0x12 /usr/local/xenon/usr/lib/libxenon.a(tcp.o)
 .comment       0x0000000000000011       0x12 /usr/local/xenon/usr/lib/libxenon.a(ip_addr.o)
 .comment       0x0000000000000011       0x12 /usr/local/xenon/usr/lib/libxenon.a(ip.o)
 .comment       0x0000000000000011       0x12 /usr/local/xenon/usr/lib/libxenon.a(ip_frag.o)
 .comment       0x0000000000000011       0x12 /usr/local/xenon/usr/lib/libxenon.a(tcp_out.o)
 .comment       0x0000000000000011       0x12 /usr/local/xenon/usr/lib/libxenon.a(udp.o)
 .comment       0x0000000000000011       0x12 /usr/local/xenon/usr/lib/libxenon.a(raw.o)
 .comment       0x0000000000000011       0x12 /usr/local/xenon/usr/lib/libxenon.a(timers.o)
 .comment       0x0000000000000011       0x12 /usr/local/xenon/usr/lib/libxenon.a(input.o)
 .comment       0x0000000000000011       0x12 /usr/local/xenon/usr/lib/libxenon.a(tcp_in.o)
 .comment       0x0000000000000011       0x12 /usr/local/xenon/usr/lib/libxenon.a(inet_chksum.o)
 .comment       0x0000000000000011       0x12 /usr/local/xenon/usr/lib/libxenon.a(icmp.o)
 .comment       0x0000000000000011       0x12 /usr/local/xenon/usr/lib/libfat.a(libfat.o)
 .comment       0x0000000000000011       0x12 /usr/local/xenon/usr/lib/libfat.a(partition.o)
 .comment       0x0000000000000011       0x12 /usr/local/xenon/usr/lib/libfat.a(cache.o)
 .comment       0x0000000000000011       0x12 /usr/local/xenon/usr/lib/libfat.a(directory.o)
 .comment       0x0000000000000011       0x12 /usr/local/xenon/usr/lib/libfat.a(disc.o)
 .comment       0x0000000000000011       0x12 /usr/local/xenon/usr/lib/libfat.a(fatdir.o)
 .comment       0x0000000000000011       0x12 /usr/local/xenon/usr/lib/libfat.a(fatfile.o)
 .comment       0x0000000000000011       0x12 /usr/local/xenon/usr/lib/libfat.a(file_allocation_table.o)
 .comment       0x0000000000000011       0x12 /usr/local/xenon/usr/lib/libfat.a(filetime.o)
 .comment       0x0000000000000011       0x12 /usr/local/xenon/usr/lib/libfat.a(lock.o)
 .comment       0x0000000000000011       0x12 /usr/local/xenon/lib/gcc/xenon/9.2.0/32/libgcc.a(unwind-dw2-fde-dip.o)
 .comment       0x0000000000000011       0x12 /usr/local/xenon/xenon/lib/32/libc.a(lib_a-assert.o)
 .comment       0x0000000000000011       0x12 /usr/local/xenon/xenon/lib/32/libc.a(lib_a-ctype_.o)
 .comment       0x0000000000000011       0x12 /usr/local/xenon/xenon/lib/32/libc.a(lib_a-errno.o)
 .comment       0x0000000000000011       0x12 /usr/local/xenon/xenon/lib/32/libc.a(lib_a-exit.o)
 .comment       0x0000000000000011       0x12 /usr/local/xenon/xenon/lib/32/libc.a(lib_a-fclose.o)
 .comment       0x0000000000000011       0x12 /usr/local/xenon/xenon/lib/32/libc.a(lib_a-fflush.o)
 .comment       0x0000000000000011       0x12 /usr/local/xenon/xenon/lib/32/libc.a(lib_a-findfp.o)
 .comment       0x0000000000000011       0x12 /usr/local/xenon/xenon/lib/32/libc.a(lib_a-fiprintf.o)
 .comment       0x0000000000000011       0x12 /usr/local/xenon/xenon/lib/32/libc.a(lib_a-fopen.o)
 .comment       0x0000000000000011       0x12 /usr/local/xenon/xenon/lib/32/libc.a(lib_a-fread.o)
 .comment       0x0000000000000011       0x12 /usr/local/xenon/xenon/lib/32/libc.a(lib_a-freer.o)
 .comment       0x0000000000000011       0x12 /usr/local/xenon/xenon/lib/32/libc.a(lib_a-fseek.o)
 .comment       0x0000000000000011       0x12 /usr/local/xenon/xenon/lib/32/libc.a(lib_a-fseeko.o)
 .comment       0x0000000000000011       0x12 /usr/local/xenon/xenon/lib/32/libc.a(lib_a-fstatr.o)
 .comment       0x0000000000000011       0x12 /usr/local/xenon/xenon/lib/32/libc.a(lib_a-ftell.o)
 .comment       0x0000000000000011       0x12 /usr/local/xenon/xenon/lib/32/libc.a(lib_a-ftello.o)
 .comment       0x0000000000000011       0x12 /usr/local/xenon/xenon/lib/32/libc.a(lib_a-fwalk.o)
 .comment       0x0000000000000011       0x12 /usr/local/xenon/xenon/lib/32/libc.a(lib_a-fwrite.o)
 .comment       0x0000000000000011       0x12 /usr/local/xenon/xenon/lib/32/libc.a(lib_a-impure.o)
 .comment       0x0000000000000011       0x12 /usr/local/xenon/xenon/lib/32/libc.a(lib_a-lcltime_r.o)
 .comment       0x0000000000000011       0x12 /usr/local/xenon/xenon/lib/32/libc.a(lib_a-locale.o)
 .comment       0x0000000000000011       0x12 /usr/local/xenon/xenon/lib/32/libc.a(lib_a-makebuf.o)
 .comment       0x0000000000000011       0x12 /usr/local/xenon/xenon/lib/32/libc.a(lib_a-malign.o)
 .comment       0x0000000000000011       0x12 /usr/local/xenon/xenon/lib/32/libc.a(lib_a-malignr.o)
 .comment       0x0000000000000011       0x12 /usr/local/xenon/xenon/lib/32/libc.a(lib_a-malloc.o)
 .comment       0x0000000000000011       0x12 /usr/local/xenon/xenon/lib/32/libc.a(lib_a-mallocr.o)
 .comment       0x0000000000000011       0x12 /usr/local/xenon/xenon/lib/32/libc.a(lib_a-mbrtowc.o)
 .comment       0x0000000000000011       0x12 /usr/local/xenon/xenon/lib/32/libc.a(lib_a-mbsrtowcs.o)
 .comment       0x0000000000000011       0x12 /usr/local/xenon/xenon/lib/32/libc.a(lib_a-mbtowc_r.o)
 .comment       0x0000000000000011       0x12 /usr/local/xenon/xenon/lib/32/libc.a(lib_a-memcmp.o)
 .comment       0x0000000000000011       0x12 /usr/local/xenon/xenon/lib/32/libc.a(lib_a-memcpy.o)
 .comment       0x0000000000000011       0x12 /usr/local/xenon/xenon/lib/32/libc.a(lib_a-memmove.o)
 .comment       0x0000000000000011       0x12 /usr/local/xenon/xenon/lib/32/libc.a(lib_a-memset.o)
 .comment       0x0000000000000011       0x12 /usr/local/xenon/xenon/lib/32/libc.a(lib_a-mktime.o)
 .comment       0x0000000000000011       0x12 /usr/local/xenon/xenon/lib/32/libc.a(lib_a-month_lengths.o)
 .comment       0x0000000000000011       0x12 /usr/local/xenon/xenon/lib/32/libc.a(lib_a-openr.o)
 .comment       0x0000000000000011       0x12 /usr/local/xenon/xenon/lib/32/libc.a(lib_a-printf.o)
 .comment       0x0000000000000011       0x12 /usr/local/xenon/xenon/lib/32/libc.a(lib_a-putchar.o)
 .comment       0x0000000000000011       0x12 /usr/local/xenon/xenon/lib/32/libc.a(lib_a-puts.o)
 .comment       0x0000000000000011       0x12 /usr/local/xenon/xenon/lib/32/libc.a(lib_a-reent.o)
 .comment       0x0000000000000011       0x12 /usr/local/xenon/xenon/lib/32/libc.a(lib_a-refill.o)
 .comment       0x0000000000000011       0x12 /usr/local/xenon/xenon/lib/32/libc.a(lib_a-sbrkr.o)
 .comment       0x0000000000000011       0x12 /usr/local/xenon/xenon/lib/32/libc.a(lib_a-snprintf.o)
 .comment       0x0000000000000011       0x12 /usr/local/xenon/xenon/lib/32/libc.a(lib_a-sprintf.o)
 .comment       0x0000000000000011       0x12 /usr/local/xenon/xenon/lib/32/libc.a(lib_a-stdio.o)
 .comment       0x0000000000000011       0x12 /usr/local/xenon/xenon/lib/32/libc.a(lib_a-stpcpy.o)
 .comment       0x0000000000000011       0x12 /usr/local/xenon/xenon/lib/32/libc.a(lib_a-strcat.o)
 .comment       0x0000000000000011       0x12 /usr/local/xenon/xenon/lib/32/libc.a(lib_a-strchr.o)
 .comment       0x0000000000000011       0x12 /usr/local/xenon/xenon/lib/32/libc.a(lib_a-strcmp.o)
 .comment       0x0000000000000011       0x12 /usr/local/xenon/xenon/lib/32/libc.a(lib_a-strcpy.o)
 .comment       0x0000000000000011       0x12 /usr/local/xenon/xenon/lib/32/libc.a(lib_a-strlen.o)
 .comment       0x0000000000000011       0x12 /usr/local/xenon/xenon/lib/32/libc.a(lib_a-strncasecmp.o)
 .comment       0x0000000000000011       0x12 /usr/local/xenon/xenon/lib/32/libc.a(lib_a-strncmp.o)
 .comment       0x0000000000000011       0x12 /usr/local/xenon/xenon/lib/32/libc.a(lib_a-strncpy.o)
 .comment       0x0000000000000011       0x12 /usr/local/xenon/xenon/lib/32/libc.a(lib_a-strnlen.o)
 .comment       0x0000000000000011       0x12 /usr/local/xenon/xenon/lib/32/libc.a(lib_a-strpbrk.o)
 .comment       0x0000000000000011       0x12 /usr/local/xenon/xenon/lib/32/libc.a(lib_a-strrchr.o)
 .comment       0x0000000000000011       0x12 /usr/local/xenon/xenon/lib/32/libc.a(lib_a-svfprintf.o)
 .comment       0x0000000000000011       0x12 /usr/local/xenon/xenon/lib/32/libc.a(lib_a-time.o)
 .comment       0x0000000000000011       0x12 /usr/local/xenon/xenon/lib/32/libc.a(lib_a-towlower.o)
 .comment       0x0000000000000011       0x12 /usr/local/xenon/xenon/lib/32/libc.a(lib_a-towupper.o)
 .comment       0x0000000000000011       0x12 /usr/local/xenon/xenon/lib/32/libc.a(lib_a-tzcalc_limits.o)
 .comment       0x0000000000000011       0x12 /usr/local/xenon/xenon/lib/32/libc.a(lib_a-tzlock.o)
 .comment       0x0000000000000011       0x12 /usr/local/xenon/xenon/lib/32/libc.a(lib_a-tzset.o)
 .comment       0x0000000000000011       0x12 /usr/local/xenon/xenon/lib/32/libc.a(lib_a-tzset_r.o)
 .comment       0x0000000000000011       0x12 /usr/local/xenon/xenon/lib/32/libc.a(lib_a-tzvars.o)
 .comment       0x0000000000000011       0x12 /usr/local/xenon/xenon/lib/32/libc.a(lib_a-vfiprintf.o)
 .comment       0x0000000000000011       0x12 /usr/local/xenon/xenon/lib/32/libc.a(lib_a-vfprintf.o)
 .comment       0x0000000000000011       0x12 /usr/local/xenon/xenon/lib/32/libc.a(lib_a-vsprintf.o)
 .comment       0x0000000000000011       0x12 /usr/local/xenon/xenon/lib/32/libc.a(lib_a-wcrtomb.o)
 .comment       0x0000000000000011       0x12 /usr/local/xenon/xenon/lib/32/libc.a(lib_a-wctob.o)
 .comment       0x0000000000000011       0x12 /usr/local/xenon/xenon/lib/32/libc.a(lib_a-wctomb_r.o)
 .comment       0x0000000000000011       0x12 /usr/local/xenon/xenon/lib/32/libc.a(lib_a-writer.o)
 .comment       0x0000000000000011       0x12 /usr/local/xenon/xenon/lib/32/libc.a(lib_a-wsetup.o)
 .comment       0x0000000000000011       0x12 /usr/local/xenon/xenon/lib/32/libc.a(lib_a-__call_atexit.o)
 .comment       0x0000000000000011       0x12 /usr/local/xenon/xenon/lib/32/libc.a(lib_a-closer.o)
 .comment       0x0000000000000011       0x12 /usr/local/xenon/xenon/lib/32/libc.a(lib_a-div.o)
 .comment       0x0000000000000011       0x12 /usr/local/xenon/xenon/lib/32/libc.a(lib_a-dtoa.o)
 .comment       0x0000000000000011       0x12 /usr/local/xenon/xenon/lib/32/libc.a(lib_a-flags.o)
 .comment       0x0000000000000011       0x12 /usr/local/xenon/xenon/lib/32/libc.a(lib_a-fputwc.o)
 .comment       0x0000000000000011       0x12 /usr/local/xenon/xenon/lib/32/libc.a(lib_a-fvwrite.o)
 .comment       0x0000000000000011       0x12 /usr/local/xenon/xenon/lib/32/libc.a(lib_a-getenv_r.o)
 .comment       0x0000000000000011       0x12 /usr/local/xenon/xenon/lib/32/libc.a(lib_a-gettimeofdayr.o)
 .comment       0x0000000000000011       0x12 /usr/local/xenon/xenon/lib/32/libc.a(lib_a-gettzinfo.o)
 .comment       0x0000000000000011       0x12 /usr/local/xenon/xenon/lib/32/libc.a(lib_a-gmtime_r.o)
 .comment       0x0000000000000011       0x12 /usr/local/xenon/xenon/lib/32/libc.a(lib_a-isattyr.o)
 .comment       0x0000000000000011       0x12 /usr/local/xenon/xenon/lib/32/libc.a(lib_a-localeconv.o)
 .comment       0x0000000000000011       0x12 /usr/local/xenon/xenon/lib/32/libc.a(lib_a-lseekr.o)
 .comment       0x0000000000000011       0x12 /usr/local/xenon/xenon/lib/32/libc.a(lib_a-mbsnrtowcs.o)
 .comment       0x0000000000000011       0x12 /usr/local/xenon/xenon/lib/32/libc.a(lib_a-memchr.o)
 .comment       0x0000000000000011       0x12 /usr/local/xenon/xenon/lib/32/libc.a(lib_a-mprec.o)
 .comment       0x0000000000000011       0x12 /usr/local/xenon/xenon/lib/32/libc.a(lib_a-putc.o)
 .comment       0x0000000000000011       0x12 /usr/local/xenon/xenon/lib/32/libc.a(lib_a-readr.o)
 .comment       0x0000000000000011       0x12 /usr/local/xenon/xenon/lib/32/libc.a(lib_a-reallocr.o)
 .comment       0x0000000000000011       0x12 /usr/local/xenon/xenon/lib/32/libc.a(lib_a-siscanf.o)
 .comment       0x0000000000000011       0x12 /usr/local/xenon/xenon/lib/32/libc.a(lib_a-strtoul.o)
 .comment       0x0000000000000011       0x12 /usr/local/xenon/xenon/lib/32/libc.a(lib_a-svfiprintf.o)
 .comment       0x0000000000000011       0x12 /usr/local/xenon/xenon/lib/32/libc.a(lib_a-svfiscanf.o)
 .comment       0x0000000000000011       0x12 /usr/local/xenon/xenon/lib/32/libc.a(lib_a-ungetc.o)
 .comment       0x0000000000000011       0x12 /usr/local/xenon/xenon/lib/32/libc.a(lib_a-wbuf.o)
 .comment       0x0000000000000011       0x12 /usr/local/xenon/xenon/lib/32/libc.a(lib_a-callocr.o)
 .comment       0x0000000000000011       0x12 /usr/local/xenon/xenon/lib/32/libc.a(lib_a-environ.o)
 .comment       0x0000000000000011       0x12 /usr/local/xenon/xenon/lib/32/libc.a(lib_a-envlock.o)
 .comment       0x0000000000000011       0x12 /usr/local/xenon/xenon/lib/32/libc.a(lib_a-iswspace.o)
 .comment       0x0000000000000011       0x12 /usr/local/xenon/xenon/lib/32/libc.a(lib_a-iswspace_l.o)
 .comment       0x0000000000000011       0x12 /usr/local/xenon/xenon/lib/32/libc.a(lib_a-sccl.o)
 .comment       0x0000000000000011       0x12 /usr/local/xenon/xenon/lib/32/libc.a(lib_a-strtol.o)
 .comment       0x0000000000000011       0x12 /usr/local/xenon/xenon/lib/32/libc.a(lib_a-strtoll.o)
 .comment       0x0000000000000011       0x12 /usr/local/xenon/xenon/lib/32/libc.a(lib_a-strtoull.o)
 .comment       0x0000000000000011       0x12 /usr/local/xenon/lib/gcc/xenon/9.2.0/32/libgcc.a(_divdi3.o)
 .comment       0x0000000000000011       0x12 /usr/local/xenon/lib/gcc/xenon/9.2.0/32/libgcc.a(_moddi3.o)
 .comment       0x0000000000000011       0x12 /usr/local/xenon/lib/gcc/xenon/9.2.0/32/libgcc.a(_udivdi3.o)
 .comment       0x0000000000000011       0x12 /usr/local/xenon/lib/gcc/xenon/9.2.0/32/libgcc.a(_umoddi3.o)
 .comment       0x0000000000000011       0x12 /usr/local/xenon/lib/gcc/xenon/9.2.0/32/crtend.o

.note.GNU-stack
                0x0000000000000000        0x0
 .note.GNU-stack
                0x0000000000000000        0x0 /usr/local/xenon/lib/gcc/xenon/9.2.0/../../../../xenon/lib/../lib/crt1.o
 .note.GNU-stack
                0x0000000000000000        0x0 main.o
 .note.GNU-stack
                0x0000000000000000        0x0 /usr/local/xenon/usr/lib/libxenon.a(argv.o)
 .note.GNU-stack
                0x0000000000000000        0x0 /usr/local/xenon/usr/lib/libxenon.a(ata.o)
 .note.GNU-stack
                0x0000000000000000        0x0 /usr/local/xenon/usr/lib/libxenon.a(newlib.o)
 .note.GNU-stack
                0x0000000000000000        0x0 /usr/local/xenon/usr/lib/libxenon.a(xenon_syscalls.o)
 .note.GNU-stack
                0x0000000000000000        0x0 /usr/local/xenon/usr/lib/libxenon.a(c_except.o)
 .note.GNU-stack
                0x0000000000000000        0x0 /usr/local/xenon/usr/lib/libxenon.a(vm.o)
 .note.GNU-stack
                0x0000000000000000        0x0 /usr/local/xenon/usr/lib/libxenon.a(time.o)
 .note.GNU-stack
                0x0000000000000000        0x0 /usr/local/xenon/usr/lib/libxenon.a(usbmain.o)
 .note.GNU-stack
                0x0000000000000000        0x0 /usr/local/xenon/usr/lib/libxenon.a(tinyehci.o)
 .note.GNU-stack
                0x0000000000000000        0x0 /usr/local/xenon/usr/lib/libxenon.a(debug.o)
 .note.GNU-stack
                0x0000000000000000        0x0 /usr/local/xenon/usr/lib/libxenon.a(xenon_smc.o)
 .note.GNU-stack
                0x0000000000000000        0x0 /usr/local/xenon/usr/lib/libxenon.a(xenon_power.o)
 .note.GNU-stack
                0x0000000000000000        0x0 /usr/local/xenon/usr/lib/libxenon.a(xenon_secotp.o)
 .note.GNU-stack
                0x0000000000000000        0x0 /usr/local/xenon/usr/lib/libxenon.a(xenon_uart.o)
 .note.GNU-stack
                0x0000000000000000        0x0 /usr/local/xenon/usr/lib/libxenon.a(xenon_sfcx.o)
 .note.GNU-stack
                0x0000000000000000        0x0 /usr/local/xenon/usr/lib/libxenon.a(xenon_config.o)
 .note.GNU-stack
                0x0000000000000000        0x0 /usr/local/xenon/usr/lib/libxenon.a(xenos.o)
 .note.GNU-stack
                0x0000000000000000        0x0 /usr/local/xenon/usr/lib/libxenon.a(xenos_edid.o)
 .note.GNU-stack
                0x0000000000000000        0x0 /usr/local/xenon/usr/lib/libxenon.a(enet.o)
 .note.GNU-stack
                0x0000000000000000        0x0 /usr/local/xenon/usr/lib/libxenon.a(xb360.o)
 .note.GNU-stack
                0x0000000000000000        0x0 /usr/local/xenon/usr/lib/libxenon.a(console.o)
 .note.GNU-stack
                0x0000000000000000        0x0 /usr/local/xenon/usr/lib/libxenon.a(lib_malloc.o)
 .note.GNU-stack
                0x0000000000000000        0x0 /usr/local/xenon/usr/lib/libxenon.a(io.o)
 .note.GNU-stack
                0x0000000000000000        0x0 /usr/local/xenon/usr/lib/libxenon.a(ohci.o)
 .note.GNU-stack
                0x0000000000000000        0x0 /usr/local/xenon/usr/lib/libxenon.a(usbd.o)
 .note.GNU-stack
                0x0000000000000000        0x0 /usr/local/xenon/usr/lib/libxenon.a(usbdevs.o)
 .note.GNU-stack
                0x0000000000000000        0x0 /usr/local/xenon/usr/lib/libxenon.a(usbhid.o)
 .note.GNU-stack
                0x0000000000000000        0x0 /usr/local/xenon/usr/lib/libxenon.a(usbhub.o)
 .note.GNU-stack
                0x0000000000000000        0x0 /usr/local/xenon/usr/lib/libxenon.a(usb_os.o)
 .note.GNU-stack
                0x0000000000000000        0x0 /usr/local/xenon/usr/lib/libxenon.a(xenon_gpio.o)
 .note.GNU-stack
                0x0000000000000000        0x0 /usr/local/xenon/usr/lib/libxenon.a(mem.o)
 .note.GNU-stack
                0x0000000000000000        0x0 /usr/local/xenon/usr/lib/libxenon.a(pbuf.o)
 .note.GNU-stack
                0x0000000000000000        0x0 /usr/local/xenon/usr/lib/libxenon.a(stats.o)
 .note.GNU-stack
                0x0000000000000000        0x0 /usr/local/xenon/usr/lib/libxenon.a(etharp.o)
 .note.GNU-stack
                0x0000000000000000        0x0 /usr/local/xenon/usr/lib/libxenon.a(dhcp.o)
 .note.GNU-stack
                0x0000000000000000        0x0 /usr/local/xenon/usr/lib/libxenon.a(hmac_sha1.o)
 .note.GNU-stack
                0x0000000000000000        0x0 /usr/local/xenon/usr/lib/libxenon.a(rc4.o)
 .note.GNU-stack
                0x0000000000000000        0x0 /usr/local/xenon/usr/lib/libxenon.a(sha1.o)
 .note.GNU-stack
                0x0000000000000000        0x0 /usr/local/xenon/usr/lib/libxenon.a(lib_queue.o)
 .note.GNU-stack
                0x0000000000000000        0x0 /usr/local/xenon/usr/lib/libxenon.a(dummy.o)
 .note.GNU-stack
                0x0000000000000000        0x0 /usr/local/xenon/usr/lib/libxenon.a(usbctrl.o)
 .note.GNU-stack
                0x0000000000000000        0x0 /usr/local/xenon/usr/lib/libxenon.a(usbdebug.o)
 .note.GNU-stack
                0x0000000000000000        0x0 /usr/local/xenon/usr/lib/libxenon.a(dns.o)
 .note.GNU-stack
                0x0000000000000000        0x0 /usr/local/xenon/usr/lib/libxenon.a(memp.o)
 .note.GNU-stack
                0x0000000000000000        0x0 /usr/local/xenon/usr/lib/libxenon.a(netif.o)
 .note.GNU-stack
                0x0000000000000000        0x0 /usr/local/xenon/usr/lib/libxenon.a(tcp.o)
 .note.GNU-stack
                0x0000000000000000        0x0 /usr/local/xenon/usr/lib/libxenon.a(ip_addr.o)
 .note.GNU-stack
                0x0000000000000000        0x0 /usr/local/xenon/usr/lib/libxenon.a(ip.o)
 .note.GNU-stack
                0x0000000000000000        0x0 /usr/local/xenon/usr/lib/libxenon.a(ip_frag.o)
 .note.GNU-stack
                0x0000000000000000        0x0 /usr/local/xenon/usr/lib/libxenon.a(tcp_out.o)
 .note.GNU-stack
                0x0000000000000000        0x0 /usr/local/xenon/usr/lib/libxenon.a(udp.o)
 .note.GNU-stack
                0x0000000000000000        0x0 /usr/local/xenon/usr/lib/libxenon.a(raw.o)
 .note.GNU-stack
                0x0000000000000000        0x0 /usr/local/xenon/usr/lib/libxenon.a(timers.o)
 .note.GNU-stack
                0x0000000000000000        0x0 /usr/local/xenon/usr/lib/libxenon.a(input.o)
 .note.GNU-stack
                0x0000000000000000        0x0 /usr/local/xenon/usr/lib/libxenon.a(tcp_in.o)
 .note.GNU-stack
                0x0000000000000000        0x0 /usr/local/xenon/usr/lib/libxenon.a(inet_chksum.o)
 .note.GNU-stack
                0x0000000000000000        0x0 /usr/local/xenon/usr/lib/libxenon.a(icmp.o)
 .note.GNU-stack
                0x0000000000000000        0x0 /usr/local/xenon/usr/lib/libfat.a(libfat.o)
 .note.GNU-stack
                0x0000000000000000        0x0 /usr/local/xenon/usr/lib/libfat.a(partition.o)
 .note.GNU-stack
                0x0000000000000000        0x0 /usr/local/xenon/usr/lib/libfat.a(cache.o)
 .note.GNU-stack
                0x0000000000000000        0x0 /usr/local/xenon/usr/lib/libfat.a(directory.o)
 .note.GNU-stack
                0x0000000000000000        0x0 /usr/local/xenon/usr/lib/libfat.a(disc.o)
 .note.GNU-stack
                0x0000000000000000        0x0 /usr/local/xenon/usr/lib/libfat.a(fatdir.o)
 .note.GNU-stack
                0x0000000000000000        0x0 /usr/local/xenon/usr/lib/libfat.a(fatfile.o)
 .note.GNU-stack
                0x0000000000000000        0x0 /usr/local/xenon/usr/lib/libfat.a(file_allocation_table.o)
 .note.GNU-stack
                0x0000000000000000        0x0 /usr/local/xenon/usr/lib/libfat.a(filetime.o)
 .note.GNU-stack
                0x0000000000000000        0x0 /usr/local/xenon/usr/lib/libfat.a(lock.o)
 .note.GNU-stack
                0x0000000000000000        0x0 /usr/local/xenon/lib/gcc/xenon/9.2.0/32/libgcc.a(crtsavgpr.o)
 .note.GNU-stack
                0x0000000000000000        0x0 /usr/local/xenon/lib/gcc/xenon/9.2.0/32/libgcc.a(crtresxgpr.o)
 .note.GNU-stack
                0x0000000000000000        0x0 /usr/local/xenon/lib/gcc/xenon/9.2.0/32/libgcc.a(unwind-dw2-fde-dip.o)
 .note.GNU-stack
                0x0000000000000000        0x0 /usr/local/xenon/xenon/lib/32/libc.a(lib_a-assert.o)
 .note.GNU-stack
                0x0000000000000000        0x0 /usr/local/xenon/xenon/lib/32/libc.a(lib_a-ctype_.o)
 .note.GNU-stack
                0x0000000000000000        0x0 /usr/local/xenon/xenon/lib/32/libc.a(lib_a-errno.o)
 .note.GNU-stack
                0x0000000000000000        0x0 /usr/local/xenon/xenon/lib/32/libc.a(lib_a-exit.o)
 .note.GNU-stack
                0x0000000000000000        0x0 /usr/local/xenon/xenon/lib/32/libc.a(lib_a-fclose.o)
 .note.GNU-stack
                0x0000000000000000        0x0 /usr/local/xenon/xenon/lib/32/libc.a(lib_a-fflush.o)
 .note.GNU-stack
                0x0000000000000000        0x0 /usr/local/xenon/xenon/lib/32/libc.a(lib_a-findfp.o)
 .note.GNU-stack
                0x0000000000000000        0x0 /usr/local/xenon/xenon/lib/32/libc.a(lib_a-fiprintf.o)
 .note.GNU-stack
                0x0000000000000000        0x0 /usr/local/xenon/xenon/lib/32/libc.a(lib_a-fopen.o)
 .note.GNU-stack
                0x0000000000000000        0x0 /usr/local/xenon/xenon/lib/32/libc.a(lib_a-fread.o)
 .note.GNU-stack
                0x0000000000000000        0x0 /usr/local/xenon/xenon/lib/32/libc.a(lib_a-freer.o)
 .note.GNU-stack
                0x0000000000000000        0x0 /usr/local/xenon/xenon/lib/32/libc.a(lib_a-fseek.o)
 .note.GNU-stack
                0x0000000000000000        0x0 /usr/local/xenon/xenon/lib/32/libc.a(lib_a-fseeko.o)
 .note.GNU-stack
                0x0000000000000000        0x0 /usr/local/xenon/xenon/lib/32/libc.a(lib_a-fstatr.o)
 .note.GNU-stack
                0x0000000000000000        0x0 /usr/local/xenon/xenon/lib/32/libc.a(lib_a-ftell.o)
 .note.GNU-stack
                0x0000000000000000        0x0 /usr/local/xenon/xenon/lib/32/libc.a(lib_a-ftello.o)
 .note.GNU-stack
                0x0000000000000000        0x0 /usr/local/xenon/xenon/lib/32/libc.a(lib_a-fwalk.o)
 .note.GNU-stack
                0x0000000000000000        0x0 /usr/local/xenon/xenon/lib/32/libc.a(lib_a-fwrite.o)
 .note.GNU-stack
                0x0000000000000000        0x0 /usr/local/xenon/xenon/lib/32/libc.a(lib_a-impure.o)
 .note.GNU-stack
                0x0000000000000000        0x0 /usr/local/xenon/xenon/lib/32/libc.a(lib_a-lcltime_r.o)
 .note.GNU-stack
                0x0000000000000000        0x0 /usr/local/xenon/xenon/lib/32/libc.a(lib_a-locale.o)
 .note.GNU-stack
                0x0000000000000000        0x0 /usr/local/xenon/xenon/lib/32/libc.a(lib_a-makebuf.o)
 .note.GNU-stack
                0x0000000000000000        0x0 /usr/local/xenon/xenon/lib/32/libc.a(lib_a-malign.o)
 .note.GNU-stack
                0x0000000000000000        0x0 /usr/local/xenon/xenon/lib/32/libc.a(lib_a-malignr.o)
 .note.GNU-stack
                0x0000000000000000        0x0 /usr/local/xenon/xenon/lib/32/libc.a(lib_a-malloc.o)
 .note.GNU-stack
                0x0000000000000000        0x0 /usr/local/xenon/xenon/lib/32/libc.a(lib_a-mallocr.o)
 .note.GNU-stack
                0x0000000000000000        0x0 /usr/local/xenon/xenon/lib/32/libc.a(lib_a-mbrtowc.o)
 .note.GNU-stack
                0x0000000000000000        0x0 /usr/local/xenon/xenon/lib/32/libc.a(lib_a-mbsrtowcs.o)
 .note.GNU-stack
                0x0000000000000000        0x0 /usr/local/xenon/xenon/lib/32/libc.a(lib_a-mbtowc_r.o)
 .note.GNU-stack
                0x0000000000000000        0x0 /usr/local/xenon/xenon/lib/32/libc.a(lib_a-memcmp.o)
 .note.GNU-stack
                0x0000000000000000        0x0 /usr/local/xenon/xenon/lib/32/libc.a(lib_a-memcpy.o)
 .note.GNU-stack
                0x0000000000000000        0x0 /usr/local/xenon/xenon/lib/32/libc.a(lib_a-memmove.o)
 .note.GNU-stack
                0x0000000000000000        0x0 /usr/local/xenon/xenon/lib/32/libc.a(lib_a-memset.o)
 .note.GNU-stack
                0x0000000000000000        0x0 /usr/local/xenon/xenon/lib/32/libc.a(lib_a-mktime.o)
 .note.GNU-stack
                0x0000000000000000        0x0 /usr/local/xenon/xenon/lib/32/libc.a(lib_a-month_lengths.o)
 .note.GNU-stack
                0x0000000000000000        0x0 /usr/local/xenon/xenon/lib/32/libc.a(lib_a-openr.o)
 .note.GNU-stack
                0x0000000000000000        0x0 /usr/local/xenon/xenon/lib/32/libc.a(lib_a-printf.o)
 .note.GNU-stack
                0x0000000000000000        0x0 /usr/local/xenon/xenon/lib/32/libc.a(lib_a-putchar.o)
 .note.GNU-stack
                0x0000000000000000        0x0 /usr/local/xenon/xenon/lib/32/libc.a(lib_a-puts.o)
 .note.GNU-stack
                0x0000000000000000        0x0 /usr/local/xenon/xenon/lib/32/libc.a(lib_a-reent.o)
 .note.GNU-stack
                0x0000000000000000        0x0 /usr/local/xenon/xenon/lib/32/libc.a(lib_a-refill.o)
 .note.GNU-stack
                0x0000000000000000        0x0 /usr/local/xenon/xenon/lib/32/libc.a(lib_a-sbrkr.o)
 .note.GNU-stack
                0x0000000000000000        0x0 /usr/local/xenon/xenon/lib/32/libc.a(lib_a-snprintf.o)
 .note.GNU-stack
                0x0000000000000000        0x0 /usr/local/xenon/xenon/lib/32/libc.a(lib_a-sprintf.o)
 .note.GNU-stack
                0x0000000000000000        0x0 /usr/local/xenon/xenon/lib/32/libc.a(lib_a-stdio.o)
 .note.GNU-stack
                0x0000000000000000        0x0 /usr/local/xenon/xenon/lib/32/libc.a(lib_a-stpcpy.o)
 .note.GNU-stack
                0x0000000000000000        0x0 /usr/local/xenon/xenon/lib/32/libc.a(lib_a-strcat.o)
 .note.GNU-stack
                0x0000000000000000        0x0 /usr/local/xenon/xenon/lib/32/libc.a(lib_a-strchr.o)
 .note.GNU-stack
                0x0000000000000000        0x0 /usr/local/xenon/xenon/lib/32/libc.a(lib_a-strcmp.o)
 .note.GNU-stack
                0x0000000000000000        0x0 /usr/local/xenon/xenon/lib/32/libc.a(lib_a-strcpy.o)
 .note.GNU-stack
                0x0000000000000000        0x0 /usr/local/xenon/xenon/lib/32/libc.a(lib_a-strlen.o)
 .note.GNU-stack
                0x0000000000000000        0x0 /usr/local/xenon/xenon/lib/32/libc.a(lib_a-strncasecmp.o)
 .note.GNU-stack
                0x0000000000000000        0x0 /usr/local/xenon/xenon/lib/32/libc.a(lib_a-strncmp.o)
 .note.GNU-stack
                0x0000000000000000        0x0 /usr/local/xenon/xenon/lib/32/libc.a(lib_a-strncpy.o)
 .note.GNU-stack
                0x0000000000000000        0x0 /usr/local/xenon/xenon/lib/32/libc.a(lib_a-strnlen.o)
 .note.GNU-stack
                0x0000000000000000        0x0 /usr/local/xenon/xenon/lib/32/libc.a(lib_a-strpbrk.o)
 .note.GNU-stack
                0x0000000000000000        0x0 /usr/local/xenon/xenon/lib/32/libc.a(lib_a-strrchr.o)
 .note.GNU-stack
                0x0000000000000000        0x0 /usr/local/xenon/xenon/lib/32/libc.a(lib_a-svfprintf.o)
 .note.GNU-stack
                0x0000000000000000        0x0 /usr/local/xenon/xenon/lib/32/libc.a(lib_a-time.o)
 .note.GNU-stack
                0x0000000000000000        0x0 /usr/local/xenon/xenon/lib/32/libc.a(lib_a-towlower.o)
 .note.GNU-stack
                0x0000000000000000        0x0 /usr/local/xenon/xenon/lib/32/libc.a(lib_a-towupper.o)
 .note.GNU-stack
                0x0000000000000000        0x0 /usr/local/xenon/xenon/lib/32/libc.a(lib_a-tzcalc_limits.o)
 .note.GNU-stack
                0x0000000000000000        0x0 /usr/local/xenon/xenon/lib/32/libc.a(lib_a-tzlock.o)
 .note.GNU-stack
                0x0000000000000000        0x0 /usr/local/xenon/xenon/lib/32/libc.a(lib_a-tzset.o)
 .note.GNU-stack
                0x0000000000000000        0x0 /usr/local/xenon/xenon/lib/32/libc.a(lib_a-tzset_r.o)
 .note.GNU-stack
                0x0000000000000000        0x0 /usr/local/xenon/xenon/lib/32/libc.a(lib_a-tzvars.o)
 .note.GNU-stack
                0x0000000000000000        0x0 /usr/local/xenon/xenon/lib/32/libc.a(lib_a-vfiprintf.o)
 .note.GNU-stack
                0x0000000000000000        0x0 /usr/local/xenon/xenon/lib/32/libc.a(lib_a-vfprintf.o)
 .note.GNU-stack
                0x0000000000000000        0x0 /usr/local/xenon/xenon/lib/32/libc.a(lib_a-vsprintf.o)
 .note.GNU-stack
                0x0000000000000000        0x0 /usr/local/xenon/xenon/lib/32/libc.a(lib_a-wcrtomb.o)
 .note.GNU-stack
                0x0000000000000000        0x0 /usr/local/xenon/xenon/lib/32/libc.a(lib_a-wctob.o)
 .note.GNU-stack
                0x0000000000000000        0x0 /usr/local/xenon/xenon/lib/32/libc.a(lib_a-wctomb_r.o)
 .note.GNU-stack
                0x0000000000000000        0x0 /usr/local/xenon/xenon/lib/32/libc.a(lib_a-writer.o)
 .note.GNU-stack
                0x0000000000000000        0x0 /usr/local/xenon/xenon/lib/32/libc.a(lib_a-wsetup.o)
 .note.GNU-stack
                0x0000000000000000        0x0 /usr/local/xenon/xenon/lib/32/libc.a(lib_a-__call_atexit.o)
 .note.GNU-stack
                0x0000000000000000        0x0 /usr/local/xenon/xenon/lib/32/libc.a(lib_a-closer.o)
 .note.GNU-stack
                0x0000000000000000        0x0 /usr/local/xenon/xenon/lib/32/libc.a(lib_a-div.o)
 .note.GNU-stack
                0x0000000000000000        0x0 /usr/local/xenon/xenon/lib/32/libc.a(lib_a-dtoa.o)
 .note.GNU-stack
                0x0000000000000000        0x0 /usr/local/xenon/xenon/lib/32/libc.a(lib_a-flags.o)
 .note.GNU-stack
                0x0000000000000000        0x0 /usr/local/xenon/xenon/lib/32/libc.a(lib_a-fputwc.o)
 .note.GNU-stack
                0x0000000000000000        0x0 /usr/local/xenon/xenon/lib/32/libc.a(lib_a-fvwrite.o)
 .note.GNU-stack
                0x0000000000000000        0x0 /usr/local/xenon/xenon/lib/32/libc.a(lib_a-getenv_r.o)
 .note.GNU-stack
                0x0000000000000000        0x0 /usr/local/xenon/xenon/lib/32/libc.a(lib_a-gettimeofdayr.o)
 .note.GNU-stack
                0x0000000000000000        0x0 /usr/local/xenon/xenon/lib/32/libc.a(lib_a-gettzinfo.o)
 .note.GNU-stack
                0x0000000000000000        0x0 /usr/local/xenon/xenon/lib/32/libc.a(lib_a-gmtime_r.o)
 .note.GNU-stack
                0x0000000000000000        0x0 /usr/local/xenon/xenon/lib/32/libc.a(lib_a-isattyr.o)
 .note.GNU-stack
                0x0000000000000000        0x0 /usr/local/xenon/xenon/lib/32/libc.a(lib_a-localeconv.o)
 .note.GNU-stack
                0x0000000000000000        0x0 /usr/local/xenon/xenon/lib/32/libc.a(lib_a-lseekr.o)
 .note.GNU-stack
                0x0000000000000000        0x0 /usr/local/xenon/xenon/lib/32/libc.a(lib_a-mbsnrtowcs.o)
 .note.GNU-stack
                0x0000000000000000        0x0 /usr/local/xenon/xenon/lib/32/libc.a(lib_a-memchr.o)
 .note.GNU-stack
                0x0000000000000000        0x0 /usr/local/xenon/xenon/lib/32/libc.a(lib_a-mprec.o)
 .note.GNU-stack
                0x0000000000000000        0x0 /usr/local/xenon/xenon/lib/32/libc.a(lib_a-putc.o)
 .note.GNU-stack
                0x0000000000000000        0x0 /usr/local/xenon/xenon/lib/32/libc.a(lib_a-readr.o)
 .note.GNU-stack
                0x0000000000000000        0x0 /usr/local/xenon/xenon/lib/32/libc.a(lib_a-reallocr.o)
 .note.GNU-stack
                0x0000000000000000        0x0 /usr/local/xenon/xenon/lib/32/libc.a(lib_a-siscanf.o)
 .note.GNU-stack
                0x0000000000000000        0x0 /usr/local/xenon/xenon/lib/32/libc.a(lib_a-strtoul.o)
 .note.GNU-stack
                0x0000000000000000        0x0 /usr/local/xenon/xenon/lib/32/libc.a(lib_a-svfiprintf.o)
 .note.GNU-stack
                0x0000000000000000        0x0 /usr/local/xenon/xenon/lib/32/libc.a(lib_a-svfiscanf.o)
 .note.GNU-stack
                0x0000000000000000        0x0 /usr/local/xenon/xenon/lib/32/libc.a(lib_a-ungetc.o)
 .note.GNU-stack
                0x0000000000000000        0x0 /usr/local/xenon/xenon/lib/32/libc.a(lib_a-wbuf.o)
 .note.GNU-stack
                0x0000000000000000        0x0 /usr/local/xenon/xenon/lib/32/libc.a(lib_a-callocr.o)
 .note.GNU-stack
                0x0000000000000000        0x0 /usr/local/xenon/xenon/lib/32/libc.a(lib_a-environ.o)
 .note.GNU-stack
                0x0000000000000000        0x0 /usr/local/xenon/xenon/lib/32/libc.a(lib_a-envlock.o)
 .note.GNU-stack
                0x0000000000000000        0x0 /usr/local/xenon/xenon/lib/32/libc.a(lib_a-iswspace.o)
 .note.GNU-stack
                0x0000000000000000        0x0 /usr/local/xenon/xenon/lib/32/libc.a(lib_a-iswspace_l.o)
 .note.GNU-stack
                0x0000000000000000        0x0 /usr/local/xenon/xenon/lib/32/libc.a(lib_a-sccl.o)
 .note.GNU-stack
                0x0000000000000000        0x0 /usr/local/xenon/xenon/lib/32/libc.a(lib_a-strtol.o)
 .note.GNU-stack
                0x0000000000000000        0x0 /usr/local/xenon/xenon/lib/32/libc.a(lib_a-strtoll.o)
 .note.GNU-stack
                0x0000000000000000        0x0 /usr/local/xenon/xenon/lib/32/libc.a(lib_a-strtoull.o)
 .note.GNU-stack
                0x0000000000000000        0x0 /usr/local/xenon/lib/gcc/xenon/9.2.0/32/libgcc.a(_divdi3.o)
 .note.GNU-stack
                0x0000000000000000        0x0 /usr/local/xenon/lib/gcc/xenon/9.2.0/32/libgcc.a(_moddi3.o)
 .note.GNU-stack
                0x0000000000000000        0x0 /usr/local/xenon/lib/gcc/xenon/9.2.0/32/libgcc.a(_udivdi3.o)
 .note.GNU-stack
                0x0000000000000000        0x0 /usr/local/xenon/lib/gcc/xenon/9.2.0/32/libgcc.a(_umoddi3.o)
 .note.GNU-stack
                0x0000000000000000        0x0 /usr/local/xenon/lib/gcc/xenon/9.2.0/32/crtend.o

.gnu.attributes
                0x0000000000000000       0x12
 .gnu.attributes
                0x0000000000000000       0x10 /usr/local/xenon/usr/lib/libxenon.a(xenon_smc.o)
 .gnu.attributes
                0x0000000000000010       0x10 /usr/local/xenon/usr/lib/libxenon.a(xenon_sfcx.o)
 .gnu.attributes
                0x0000000000000020       0x10 /usr/local/xenon/usr/lib/libxenon.a(dns.o)
 .gnu.attributes
                0x0000000000000030       0x10 /usr/local/xenon/xenon/lib/32/libc.a(lib_a-fiprintf.o)
 .gnu.attributes
                0x0000000000000040       0x10 /usr/local/xenon/xenon/lib/32/libc.a(lib_a-mktime.o)
 .gnu.attributes
                0x0000000000000050       0x10 /usr/local/xenon/xenon/lib/32/libc.a(lib_a-printf.o)
 .gnu.attributes
                0x0000000000000060       0x10 /usr/local/xenon/xenon/lib/32/libc.a(lib_a-snprintf.o)
 .gnu.attributes
                0x0000000000000070       0x10 /usr/local/xenon/xenon/lib/32/libc.a(lib_a-sprintf.o)
 .gnu.attributes
                0x0000000000000080       0x10 /usr/local/xenon/xenon/lib/32/libc.a(lib_a-svfprintf.o)
 .gnu.attributes
                0x0000000000000090       0x10 /usr/local/xenon/xenon/lib/32/libc.a(lib_a-vfprintf.o)
 .gnu.attributes
                0x00000000000000a0       0x10 /usr/local/xenon/xenon/lib/32/libc.a(lib_a-div.o)
 .gnu.attributes
                0x00000000000000b0       0x10 /usr/local/xenon/xenon/lib/32/libc.a(lib_a-dtoa.o)
 .gnu.attributes
                0x00000000000000c0       0x10 /usr/local/xenon/xenon/lib/32/libc.a(lib_a-mprec.o)
 .gnu.attributes
                0x00000000000000d0       0x10 /usr/local/xenon/xenon/lib/32/libc.a(lib_a-siscanf.o)
